C51 COMPILER V9.60.7.0   PCA                                                               12/19/2023 11:49:39 PAGE 1   


C51 COMPILER V9.60.7.0, COMPILATION OF MODULE PCA
OBJECT MODULE PLACED IN .\build\Target 1\System\PCA.o
COMPILER INVOKED BY: C:\Keil_v5\C51\BIN\C51.exe .\SYSTEM\PCA.C OMF2 TABS(4) CODE NOCOND SYMBOLS PRINT(.\build\Target 1\S
                    -ystem\PCA.lst) INCDIR(../../../../../../../Keil_v5/C51/INC/Atmel;User;System;../../../../../../../Keil_v5/C51/INC) DEFIN
                    -E(__UVISION_VERSION=526) OPTIMIZE(8,SPEED) LARGE ROM(LARGE) OBJECT(.\build\Target 1\System\PCA.o)

line level    source

   1          #include    "PCA.h"
   2          
   3          bit                 B_Capture0,B_Capture1,B_Capture2;
   4          uint8_t         PCA0_mode,PCA1_mode,PCA2_mode;
   5          uint16_t        CCAP0_tmp,PCA_Timer0;
   6          uint16_t        CCAP1_tmp,PCA_Timer1;
   7          uint16_t        CCAP2_tmp,PCA_Timer2;
   8          
   9          /*************  功能说明    **************
  10          
  11          
  12          ******************************************/
  13          
  14          uint16_t    PWM0_low;   //PWM输出低电平的PCA时钟脉冲个数, 用户层不可见。
  15          uint16_t    PWM1_low;   //PWM输出低电平的PCA时钟脉冲个数, 用户层不可见。
  16          uint16_t    PWM2_low;   //PWM输出低电平的PCA时钟脉冲个数, 用户层不可见。
  17          
  18          
  19          //========================================================================
  20          // 函数: void PWMn_SetHighReg(unsigned int high)
  21          // 描述: 更新占空比数据。
  22          // 参数: high:  占空比数据，即PWM输出高电平的PCA时钟脉冲个数。
  23          // 返回: 无
  24          // 版本: VER1.0
  25          // 日期: 2013-5-15
  26          // 备注: 
  27          //========================================================================
  28          void PWMn_Update(uint8_t PCA_id, uint16_t high)
  29          {
  30   1          if(PCA_id == PCA0)
  31   1          {
  32   2              if(high > PWM0_HIGH_MAX)    high = PWM0_HIGH_MAX;   //如果写入大于最大占空比数据，强制为最大占空比。
  33   2              if(high < PWM0_HIGH_MIN)    high = PWM0_HIGH_MIN;   //如果写入小于最小占空比数据，则返回错误代码2。
  34   2              CR = 0;                         //停止PCA。
  35   2              PCA_Timer0 = high;              //数据在正确范围，则装入占空比寄存器。
  36   2              PWM0_low = PWM0_DUTY - high;    //计算并保存PWM输出低电平的PCA时钟脉冲个数。
  37   2              CR = 1;                         //启动PCA。
  38   2          }
  39   1          else if(PCA_id == PCA1)
  40   1          {
  41   2              if(high > PWM1_HIGH_MAX)    high = PWM1_HIGH_MAX;   //如果写入大于最大占空比数据，强制为最大占空比。
  42   2              if(high < PWM1_HIGH_MIN)    high = PWM1_HIGH_MIN;   //如果写入小于最小占空比数据，则返回错误代码2。
  43   2              CR = 0;                         //停止PCA。
  44   2              PCA_Timer1 = high;              //数据在正确范围，则装入占空比寄存器。
  45   2              PWM1_low = PWM1_DUTY - high;    //计算并保存PWM输出低电平的PCA时钟脉冲个数。
  46   2              CR = 1;                         //启动PCA。
  47   2          }
  48   1          else if(PCA_id == PCA2)
  49   1          {
  50   2              if(high > PWM2_HIGH_MAX)        high = PWM2_HIGH_MAX;   //如果写入大于最大占空比数据，强制为最大占空比。
  51   2              if(high < PWM2_HIGH_MIN)        high = PWM2_HIGH_MIN;   //如果写入小于最小占空比数据，则返回错误代码2。
  52   2              CR = 0;                     //停止PCA。
  53   2              PCA_Timer2 = high;                      //数据在正确范围，则装入占空比寄存器。
C51 COMPILER V9.60.7.0   PCA                                                               12/19/2023 11:49:39 PAGE 2   

  54   2              PWM2_low = PWM2_DUTY - high;                //计算并保存PWM输出低电平的PCA时钟脉冲个数。
  55   2              CR = 1;                     //启动PCA。
  56   2          }
  57   1      }
  58          
  59          
  60          
  61          //========================================================================
  62          // 函数: UpdatePwm(u8 PCA_id, u8 pwm_value)
  63          // 描述: 更新PWM值. 
  64          // 参数: PCA_id: PCA序号. 取值 PCA0,PCA1,PCA2,PCA_Counter
  65          //       pwm_value: pwm值, 这个值是输出低电平的时间.
  66          // 返回: none.
  67          // 版本: V1.0, 2012-11-22
  68          //========================================================================
  69          /*
  70          void    UpdatePwm(u8 PCA_id, u8 pwm_value)
  71          {
  72              if(PCA_id == PCA0)      CCAP0H = pwm_value;
  73              else if(PCA_id == PCA1) CCAP1H = pwm_value;
  74              else if(PCA_id == PCA2) CCAP2H = pwm_value;
  75          }
  76          */
  77          
  78          //========================================================================
  79          // 函数: void   PCA_Init(PCA_id, PCA_InitTypeDef *PCAx)
  80          // 描述: PCA初始化程序.
  81          // 参数: PCA_id: PCA序号. 取值 PCA0,PCA1,PCA2,PCA_Counter
  82          //       PCAx: 结构参数,请参考PCA.h里的定义.
  83          // 返回: none.
  84          // 版本: V1.0, 2012-11-22
  85          //========================================================================
  86          void    PCA_Init(uint8_t PCA_id, PCA_InitTypeDef *PCAx)
  87          {
  88   1          if(PCA_id > PCA_Counter)    return;     //id错误
  89   1      
  90   1          if(PCA_id == PCA_Counter)           //设置公用Counter
  91   1          {
  92   2              CR = 0;
  93   2              CH = 0;
  94   2              CL = 0;
  95   2              AUXR1 = (AUXR1 & ~(3<<4)) | PCAx->PCA_IoUse;            //切换IO口
  96   2              CMOD  = (CMOD  & ~(7<<1)) | PCAx->PCA_Clock;            //选择时钟源
  97   2              CMOD  = (CMOD  & ~1) | (PCAx->PCA_Interrupt_Mode & 1);  //ECF
  98   2              if(PCAx->PCA_Polity == PolityHigh)      PPCA = 1;   //高优先级中断
  99   2              else                                    PPCA = 0;   //低优先级中断
 100   2              CR = 1;
 101   2              return;
 102   2          }
 103   1      
 104   1          PCAx->PCA_Interrupt_Mode &= (3<<4) + 1;
 105   1          if(PCAx->PCA_Mode >= PCA_Mode_SoftTimer)    PCAx->PCA_Interrupt_Mode &= ~(3<<4);
 106   1      
 107   1          if(PCA_id == PCA0)
 108   1          {
 109   2              CCAPM0    = PCAx->PCA_Mode | PCAx->PCA_Interrupt_Mode;  //工作模式, 中断模式
 110   2              PCA_PWM0  = (PCA_PWM0 & ~(3<<6)) | PCAx->PCA_PWM_Wide;  //PWM宽度
 111   2      
 112   2              PCA_Timer0 = PCAx->PCA_Value;
 113   2              B_Capture0 = 0;
 114   2              PCA0_mode = PCAx->PCA_Mode;
 115   2              CCAP0_tmp = PCA_Timer0;
C51 COMPILER V9.60.7.0   PCA                                                               12/19/2023 11:49:39 PAGE 3   

 116   2              CCAP0L = (uint8_t)CCAP0_tmp;            //将影射寄存器写入捕获寄存器，先写CCAP0L
 117   2              CCAP0H = (uint8_t)(CCAP0_tmp >> 8); //后写CCAP0H
 118   2          }
 119   1          if(PCA_id == PCA1)
 120   1          {
 121   2              CCAPM1    = PCAx->PCA_Mode | PCAx->PCA_Interrupt_Mode;
 122   2              PCA_PWM1  = (PCA_PWM1 & ~(3<<6)) | PCAx->PCA_PWM_Wide;
 123   2      
 124   2              PCA_Timer1 = PCAx->PCA_Value;
 125   2              B_Capture1 = 0;
 126   2              PCA1_mode = PCAx->PCA_Mode;
 127   2              CCAP1_tmp = PCA_Timer1;
 128   2              CCAP1L = (uint8_t)CCAP1_tmp;            //将影射寄存器写入捕获寄存器，先写CCAP0L
 129   2              CCAP1H = (uint8_t)(CCAP1_tmp >> 8); //后写CCAP0H
 130   2          }
 131   1          if(PCA_id == PCA2)
 132   1          {
 133   2              CCAPM2    = PCAx->PCA_Mode | PCAx->PCA_Interrupt_Mode;
 134   2              PCA_PWM2  = (PCA_PWM2 & ~(3<<6)) | PCAx->PCA_PWM_Wide;
 135   2      
 136   2              PCA_Timer2 = PCAx->PCA_Value;
 137   2              B_Capture2 = 0;
 138   2              PCA2_mode = PCAx->PCA_Mode;
 139   2              CCAP2_tmp = PCA_Timer2;
 140   2              CCAP2L = (uint8_t)CCAP2_tmp;            //将影射寄存器写入捕获寄存器，先写CCAP0L
 141   2              CCAP2H = (uint8_t)(CCAP2_tmp >> 8); //后写CCAP0H
 142   2          }
 143   1      }
 144          
 145          
 146          //========================================================================
 147          // 函数: void   PCA_Handler (void) interrupt PCA_VECTOR
 148          // 描述: PCA中断处理程序.
 149          // 参数: None
 150          // 返回: none.
 151          // 版本: V1.0, 2012-11-22
 152          //========================================================================
 153          void    PCA_Handler (void) interrupt PCA_VECTOR
 154          {
 155   1          if(CCF0)        //PCA模块0中断
 156   1          {
 157   2              CCF0 = 0;       //清PCA模块0中断标志
 158   2              if(P25) CCAP0_tmp += PCA_Timer0;    //输出为高电平，则给影射寄存器装载高电平时间长度
 159   2              else    CCAP0_tmp += PWM0_low;  //输出为低电平，则给影射寄存器装载低电平时间长度
 160   2              CCAP0L = (uint8_t)CCAP0_tmp;            //将影射寄存器写入捕获寄存器，先写CCAP0L
 161   2              CCAP0H = (uint8_t)(CCAP0_tmp >> 8); //后写CCAP0H
 162   2          }
 163   1      
 164   1          if(CCF1)    //PCA模块1中断
 165   1          {
 166   2              CCF1 = 0;       //清PCA模块1中断标志
 167   2              if(P26) CCAP1_tmp += PCA_Timer1;    //输出为高电平，则给影射寄存器装载高电平时间长度
 168   2              else    CCAP1_tmp += PWM1_low;  //输出为低电平，则给影射寄存器装载低电平时间长度
 169   2              CCAP1L = (uint8_t)CCAP1_tmp;            //将影射寄存器写入捕获寄存器，先写CCAP0L
 170   2              CCAP1H = (uint8_t)(CCAP1_tmp >> 8); //后写CCAP0H
 171   2          }
 172   1      
 173   1          if(CCF2)    //PCA模块2中断
 174   1          {
 175   2              CCF2 = 0;       //清PCA模块1中断标志
 176   2              if(P27) CCAP2_tmp += PCA_Timer2;    //输出为高电平，则给影射寄存器装载高电平时间长度
 177   2              else    CCAP2_tmp += PWM2_low;  //输出为低电平，则给影射寄存器装载低电平时间长度
C51 COMPILER V9.60.7.0   PCA                                                               12/19/2023 11:49:39 PAGE 4   

 178   2              CCAP2L = (uint8_t)CCAP2_tmp;            //将影射寄存器写入捕获寄存器，先写CCAP0L
 179   2              CCAP2H = (uint8_t)(CCAP2_tmp >> 8); //后写CCAP0H
 180   2          }
 181   1      
 182   1      /*  if(CF)  //PCA溢出中断
 183   1          {
 184   1              CF = 0;         //清PCA溢出中断标志
 185   1          }
 186   1      */
 187   1      }
C51 COMPILER V9.60.7.0   PCA                                                               12/19/2023 11:49:39 PAGE 5   

ASSEMBLY LISTING OF GENERATED OBJECT CODE


             ; FUNCTION _PWMn_Update (BEGIN)
                                           ; SOURCE LINE # 28
;---- Variable 'high' assigned to Register 'R4/R5' ----
;---- Variable 'PCA_id' assigned to Register 'R7' ----
                                           ; SOURCE LINE # 29
                                           ; SOURCE LINE # 30
0000 EF                MOV     A,R7
0001 7034              JNZ     ?C0001
                                           ; SOURCE LINE # 31
                                           ; SOURCE LINE # 32
0003 D3                SETB    C
0004 ED                MOV     A,R5
0005 9450              SUBB    A,#050H
0007 EC                MOV     A,R4
0008 940F              SUBB    A,#0FH
000A 4004              JC      ?C0002
000C 7C0F              MOV     R4,#0FH
000E 7D50              MOV     R5,#050H
0010         ?C0002:
                                           ; SOURCE LINE # 33
0010 C3                CLR     C
0011 ED                MOV     A,R5
0012 9450              SUBB    A,#050H
0014 EC                MOV     A,R4
0015 9400              SUBB    A,#00H
0017 5004              JNC     ?C0003
0019 7C00              MOV     R4,#00H
001B 7D50              MOV     R5,#050H
001D         ?C0003:
                                           ; SOURCE LINE # 34
001D C2DE              CLR     CR
                                           ; SOURCE LINE # 35
001F 900000      R     MOV     DPTR,#PCA_Timer0
0022 EC                MOV     A,R4
0023 F0                MOVX    @DPTR,A
0024 A3                INC     DPTR
0025 ED                MOV     A,R5
0026 F0                MOVX    @DPTR,A
                                           ; SOURCE LINE # 36
0027 C3                CLR     C
0028 74A0              MOV     A,#0A0H
002A 9D                SUBB    A,R5
002B 900000      R     MOV     DPTR,#PWM0_low+01H
002E F0                MOVX    @DPTR,A
002F 740F              MOV     A,#0FH
0031 9C                SUBB    A,R4
0032 900000      R     MOV     DPTR,#PWM0_low
                                           ; SOURCE LINE # 37
                                           ; SOURCE LINE # 38
0035 8073              SJMP    ?C0033
0037         ?C0001:
                                           ; SOURCE LINE # 39
0037 EF                MOV     A,R7
0038 6401              XRL     A,#01H
003A 7034              JNZ     ?C0005
                                           ; SOURCE LINE # 40
                                           ; SOURCE LINE # 41
003C D3                SETB    C
003D ED                MOV     A,R5
C51 COMPILER V9.60.7.0   PCA                                                               12/19/2023 11:49:39 PAGE 6   

003E 9468              SUBB    A,#068H
0040 EC                MOV     A,R4
0041 940B              SUBB    A,#0BH
0043 4004              JC      ?C0006
0045 7C0B              MOV     R4,#0BH
0047 7D68              MOV     R5,#068H
0049         ?C0006:
                                           ; SOURCE LINE # 42
0049 C3                CLR     C
004A ED                MOV     A,R5
004B 9450              SUBB    A,#050H
004D EC                MOV     A,R4
004E 9400              SUBB    A,#00H
0050 5004              JNC     ?C0007
0052 7C00              MOV     R4,#00H
0054 7D50              MOV     R5,#050H
0056         ?C0007:
                                           ; SOURCE LINE # 43
0056 C2DE              CLR     CR
                                           ; SOURCE LINE # 44
0058 900000      R     MOV     DPTR,#PCA_Timer1
005B EC                MOV     A,R4
005C F0                MOVX    @DPTR,A
005D A3                INC     DPTR
005E ED                MOV     A,R5
005F F0                MOVX    @DPTR,A
                                           ; SOURCE LINE # 45
0060 C3                CLR     C
0061 74B8              MOV     A,#0B8H
0063 9D                SUBB    A,R5
0064 900000      R     MOV     DPTR,#PWM1_low+01H
0067 F0                MOVX    @DPTR,A
0068 740B              MOV     A,#0BH
006A 9C                SUBB    A,R4
006B 900000      R     MOV     DPTR,#PWM1_low
006E         ?C0032:
                                           ; SOURCE LINE # 46
                                           ; SOURCE LINE # 47
006E 803A              SJMP    ?C0033
0070         ?C0005:
                                           ; SOURCE LINE # 48
0070 EF                MOV     A,R7
0071 6402              XRL     A,#02H
0073 7038              JNZ     ?C0012
                                           ; SOURCE LINE # 49
                                           ; SOURCE LINE # 50
0075 D3                SETB    C
0076 ED                MOV     A,R5
0077 9480              SUBB    A,#080H
0079 EC                MOV     A,R4
007A 9407              SUBB    A,#07H
007C 4004              JC      ?C0010
007E 7C07              MOV     R4,#07H
0080 7D80              MOV     R5,#080H
0082         ?C0010:
                                           ; SOURCE LINE # 51
0082 C3                CLR     C
0083 ED                MOV     A,R5
0084 9450              SUBB    A,#050H
0086 EC                MOV     A,R4
0087 9400              SUBB    A,#00H
0089 5004              JNC     ?C0011
C51 COMPILER V9.60.7.0   PCA                                                               12/19/2023 11:49:39 PAGE 7   

008B 7C00              MOV     R4,#00H
008D 7D50              MOV     R5,#050H
008F         ?C0011:
                                           ; SOURCE LINE # 52
008F C2DE              CLR     CR
                                           ; SOURCE LINE # 53
0091 900000      R     MOV     DPTR,#PCA_Timer2
0094 EC                MOV     A,R4
0095 F0                MOVX    @DPTR,A
0096 A3                INC     DPTR
0097 ED                MOV     A,R5
0098 F0                MOVX    @DPTR,A
                                           ; SOURCE LINE # 54
0099 AE04              MOV     R6,AR4
009B FF                MOV     R7,A
009C C3                CLR     C
009D 74D0              MOV     A,#0D0H
009F 9F                SUBB    A,R7
00A0 900000      R     MOV     DPTR,#PWM2_low+01H
00A3 F0                MOVX    @DPTR,A
00A4 7407              MOV     A,#07H
00A6 9E                SUBB    A,R6
00A7 900000      R     MOV     DPTR,#PWM2_low
00AA         ?C0033:
00AA F0                MOVX    @DPTR,A
                                           ; SOURCE LINE # 55
00AB D2DE              SETB    CR
                                           ; SOURCE LINE # 56
                                           ; SOURCE LINE # 57
00AD         ?C0012:
00AD 22                RET     
             ; FUNCTION _PWMn_Update (END)

             ; FUNCTION _PCA_Init (BEGIN)
                                           ; SOURCE LINE # 86
0000 900000      R     MOV     DPTR,#PCAx
0003 EB                MOV     A,R3
0004 F0                MOVX    @DPTR,A
0005 A3                INC     DPTR
0006 EA                MOV     A,R2
0007 F0                MOVX    @DPTR,A
0008 A3                INC     DPTR
0009 E9                MOV     A,R1
000A F0                MOVX    @DPTR,A
;---- Variable 'PCA_id' assigned to Register 'R5' ----
000B AD07              MOV     R5,AR7
                                           ; SOURCE LINE # 87
                                           ; SOURCE LINE # 88
000D ED                MOV     A,R5
000E D3                SETB    C
000F 9403              SUBB    A,#03H
0011 4003              JC      $ + 5H
0013 020000      R     LJMP    ?C0014
                                           ; SOURCE LINE # 90
0016 ED                MOV     A,R5
0017 6403              XRL     A,#03H
0019 704C              JNZ     ?C0015
                                           ; SOURCE LINE # 91
                                           ; SOURCE LINE # 92
001B C2DE              CLR     CR
                                           ; SOURCE LINE # 93
001D F5F9              MOV     CH,A
C51 COMPILER V9.60.7.0   PCA                                                               12/19/2023 11:49:39 PAGE 8   

                                           ; SOURCE LINE # 94
001F F5E9              MOV     CL,A
                                           ; SOURCE LINE # 95
0021 900000      R     MOV     DPTR,#PCAx
0024 E0                MOVX    A,@DPTR
0025 FB                MOV     R3,A
0026 A3                INC     DPTR
0027 E0                MOVX    A,@DPTR
0028 FA                MOV     R2,A
0029 A3                INC     DPTR
002A E0                MOVX    A,@DPTR
002B F9                MOV     R1,A
002C 120000      E     LCALL   ?C?CLDPTR
002F FF                MOV     R7,A
0030 E5A2              MOV     A,AUXR1
0032 54CF              ANL     A,#0CFH
0034 4F                ORL     A,R7
0035 F5A2              MOV     AUXR1,A
                                           ; SOURCE LINE # 96
0037 900001            MOV     DPTR,#01H
003A 120000      E     LCALL   ?C?CLDOPTR
003D FF                MOV     R7,A
003E E5D9              MOV     A,CMOD
0040 54F1              ANL     A,#0F1H
0042 4F                ORL     A,R7
0043 F5D9              MOV     CMOD,A
                                           ; SOURCE LINE # 97
0045 900004            MOV     DPTR,#04H
0048 120000      E     LCALL   ?C?CLDOPTR
004B 5401              ANL     A,#01H
004D FF                MOV     R7,A
004E E5D9              MOV     A,CMOD
0050 54FE              ANL     A,#0FEH
0052 4F                ORL     A,R7
0053 F5D9              MOV     CMOD,A
                                           ; SOURCE LINE # 98
0055 900005            MOV     DPTR,#05H
0058 120000      E     LCALL   ?C?CLDOPTR
005B B40104            CJNE    A,#01H,?C0016
005E D2BF              SETB    PPCA
0060 8002              SJMP    ?C0017
0062         ?C0016:
                                           ; SOURCE LINE # 99
0062 C2BF              CLR     PPCA
0064         ?C0017:
                                           ; SOURCE LINE # 100
0064 D2DE              SETB    CR
0066 22                RET     
                                           ; SOURCE LINE # 102
0067         ?C0015:
                                           ; SOURCE LINE # 104
0067 900000      R     MOV     DPTR,#PCAx
006A E0                MOVX    A,@DPTR
006B FB                MOV     R3,A
006C A3                INC     DPTR
006D E0                MOVX    A,@DPTR
006E FA                MOV     R2,A
006F A3                INC     DPTR
0070 E0                MOVX    A,@DPTR
0071 2404              ADD     A,#04H
0073 F9                MOV     R1,A
0074 E4                CLR     A
C51 COMPILER V9.60.7.0   PCA                                                               12/19/2023 11:49:39 PAGE 9   

0075 3A                ADDC    A,R2
0076 FA                MOV     R2,A
0077 120000      E     LCALL   ?C?CLDPTR
007A 5431              ANL     A,#031H
007C 120000      E     LCALL   ?C?CSTPTR
                                           ; SOURCE LINE # 105
007F 900000      R     MOV     DPTR,#PCAx
0082 E0                MOVX    A,@DPTR
0083 FB                MOV     R3,A
0084 A3                INC     DPTR
0085 E0                MOVX    A,@DPTR
0086 FA                MOV     R2,A
0087 A3                INC     DPTR
0088 E0                MOVX    A,@DPTR
0089 F9                MOV     R1,A
008A 900002            MOV     DPTR,#02H
008D 120000      E     LCALL   ?C?CLDOPTR
0090 C3                CLR     C
0091 9448              SUBB    A,#048H
0093 400F              JC      ?C0018
0095 E9                MOV     A,R1
0096 2404              ADD     A,#04H
0098 F9                MOV     R1,A
0099 E4                CLR     A
009A 3A                ADDC    A,R2
009B FA                MOV     R2,A
009C 120000      E     LCALL   ?C?CLDPTR
009F 54CF              ANL     A,#0CFH
00A1 120000      E     LCALL   ?C?CSTPTR
00A4         ?C0018:
                                           ; SOURCE LINE # 107
00A4 ED                MOV     A,R5
00A5 704F              JNZ     ?C0019
                                           ; SOURCE LINE # 108
                                           ; SOURCE LINE # 109
00A7 900000      R     MOV     DPTR,#PCAx
00AA E0                MOVX    A,@DPTR
00AB FB                MOV     R3,A
00AC A3                INC     DPTR
00AD E0                MOVX    A,@DPTR
00AE FA                MOV     R2,A
00AF A3                INC     DPTR
00B0 E0                MOVX    A,@DPTR
00B1 F9                MOV     R1,A
00B2 900004            MOV     DPTR,#04H
00B5 120000      E     LCALL   ?C?CLDOPTR
00B8 FF                MOV     R7,A
00B9 900002            MOV     DPTR,#02H
00BC 120000      E     LCALL   ?C?CLDOPTR
00BF FE                MOV     R6,A
00C0 4F                ORL     A,R7
00C1 F5DA              MOV     CCAPM0,A
                                           ; SOURCE LINE # 110
00C3 900003            MOV     DPTR,#03H
00C6 120000      E     LCALL   ?C?CLDOPTR
00C9 FF                MOV     R7,A
00CA E5F2              MOV     A,PCA_PWM0
00CC 543F              ANL     A,#03FH
00CE 4F                ORL     A,R7
00CF F5F2              MOV     PCA_PWM0,A
                                           ; SOURCE LINE # 112
00D1 900006            MOV     DPTR,#06H
C51 COMPILER V9.60.7.0   PCA                                                               12/19/2023 11:49:39 PAGE 10  

00D4 120000      E     LCALL   ?C?ILDOPTR
00D7 FB                MOV     R3,A
00D8 AAF0              MOV     R2,B
00DA 900000      R     MOV     DPTR,#PCA_Timer0
00DD EA                MOV     A,R2
00DE F0                MOVX    @DPTR,A
00DF A3                INC     DPTR
00E0 EB                MOV     A,R3
00E1 F0                MOVX    @DPTR,A
                                           ; SOURCE LINE # 113
00E2 C200        R     CLR     B_Capture0
                                           ; SOURCE LINE # 114
00E4 900000      R     MOV     DPTR,#PCA0_mode
00E7 EE                MOV     A,R6
00E8 F0                MOVX    @DPTR,A
                                           ; SOURCE LINE # 115
00E9 900000      R     MOV     DPTR,#CCAP0_tmp
00EC EA                MOV     A,R2
00ED F0                MOVX    @DPTR,A
00EE A3                INC     DPTR
00EF EB                MOV     A,R3
00F0 F0                MOVX    @DPTR,A
                                           ; SOURCE LINE # 116
00F1 F5EA              MOV     CCAP0L,A
                                           ; SOURCE LINE # 117
00F3 EA                MOV     A,R2
00F4 F5FA              MOV     CCAP0H,A
                                           ; SOURCE LINE # 118
00F6         ?C0019:
                                           ; SOURCE LINE # 119
00F6 ED                MOV     A,R5
00F7 6401              XRL     A,#01H
00F9 704F              JNZ     ?C0020
                                           ; SOURCE LINE # 120
                                           ; SOURCE LINE # 121
00FB 900000      R     MOV     DPTR,#PCAx
00FE E0                MOVX    A,@DPTR
00FF FB                MOV     R3,A
0100 A3                INC     DPTR
0101 E0                MOVX    A,@DPTR
0102 FA                MOV     R2,A
0103 A3                INC     DPTR
0104 E0                MOVX    A,@DPTR
0105 F9                MOV     R1,A
0106 900004            MOV     DPTR,#04H
0109 120000      E     LCALL   ?C?CLDOPTR
010C FF                MOV     R7,A
010D 900002            MOV     DPTR,#02H
0110 120000      E     LCALL   ?C?CLDOPTR
0113 FE                MOV     R6,A
0114 4F                ORL     A,R7
0115 F5DB              MOV     CCAPM1,A
                                           ; SOURCE LINE # 122
0117 900003            MOV     DPTR,#03H
011A 120000      E     LCALL   ?C?CLDOPTR
011D FF                MOV     R7,A
011E E5F3              MOV     A,PCA_PWM1
0120 543F              ANL     A,#03FH
0122 4F                ORL     A,R7
0123 F5F3              MOV     PCA_PWM1,A
                                           ; SOURCE LINE # 124
0125 900006            MOV     DPTR,#06H
C51 COMPILER V9.60.7.0   PCA                                                               12/19/2023 11:49:39 PAGE 11  

0128 120000      E     LCALL   ?C?ILDOPTR
012B FB                MOV     R3,A
012C AAF0              MOV     R2,B
012E 900000      R     MOV     DPTR,#PCA_Timer1
0131 EA                MOV     A,R2
0132 F0                MOVX    @DPTR,A
0133 A3                INC     DPTR
0134 EB                MOV     A,R3
0135 F0                MOVX    @DPTR,A
                                           ; SOURCE LINE # 125
0136 C200        R     CLR     B_Capture1
                                           ; SOURCE LINE # 126
0138 900000      R     MOV     DPTR,#PCA1_mode
013B EE                MOV     A,R6
013C F0                MOVX    @DPTR,A
                                           ; SOURCE LINE # 127
013D 900000      R     MOV     DPTR,#CCAP1_tmp
0140 EA                MOV     A,R2
0141 F0                MOVX    @DPTR,A
0142 A3                INC     DPTR
0143 EB                MOV     A,R3
0144 F0                MOVX    @DPTR,A
                                           ; SOURCE LINE # 128
0145 F5EB              MOV     CCAP1L,A
                                           ; SOURCE LINE # 129
0147 EA                MOV     A,R2
0148 F5FB              MOV     CCAP1H,A
                                           ; SOURCE LINE # 130
014A         ?C0020:
                                           ; SOURCE LINE # 131
014A ED                MOV     A,R5
014B 6402              XRL     A,#02H
014D 704F              JNZ     ?C0014
                                           ; SOURCE LINE # 132
                                           ; SOURCE LINE # 133
014F 900000      R     MOV     DPTR,#PCAx
0152 E0                MOVX    A,@DPTR
0153 FB                MOV     R3,A
0154 A3                INC     DPTR
0155 E0                MOVX    A,@DPTR
0156 FA                MOV     R2,A
0157 A3                INC     DPTR
0158 E0                MOVX    A,@DPTR
0159 F9                MOV     R1,A
015A 900004            MOV     DPTR,#04H
015D 120000      E     LCALL   ?C?CLDOPTR
0160 FF                MOV     R7,A
0161 900002            MOV     DPTR,#02H
0164 120000      E     LCALL   ?C?CLDOPTR
0167 FE                MOV     R6,A
0168 4F                ORL     A,R7
0169 F5DC              MOV     CCAPM2,A
                                           ; SOURCE LINE # 134
016B 900003            MOV     DPTR,#03H
016E 120000      E     LCALL   ?C?CLDOPTR
0171 FF                MOV     R7,A
0172 E5F4              MOV     A,PCA_PWM2
0174 543F              ANL     A,#03FH
0176 4F                ORL     A,R7
0177 F5F4              MOV     PCA_PWM2,A
                                           ; SOURCE LINE # 136
0179 900006            MOV     DPTR,#06H
C51 COMPILER V9.60.7.0   PCA                                                               12/19/2023 11:49:39 PAGE 12  

017C 120000      E     LCALL   ?C?ILDOPTR
017F FD                MOV     R5,A
0180 ACF0              MOV     R4,B
0182 900000      R     MOV     DPTR,#PCA_Timer2
0185 EC                MOV     A,R4
0186 F0                MOVX    @DPTR,A
0187 A3                INC     DPTR
0188 ED                MOV     A,R5
0189 F0                MOVX    @DPTR,A
                                           ; SOURCE LINE # 137
018A C200        R     CLR     B_Capture2
                                           ; SOURCE LINE # 138
018C 900000      R     MOV     DPTR,#PCA2_mode
018F EE                MOV     A,R6
0190 F0                MOVX    @DPTR,A
                                           ; SOURCE LINE # 139
0191 900000      R     MOV     DPTR,#CCAP2_tmp
0194 EC                MOV     A,R4
0195 F0                MOVX    @DPTR,A
0196 A3                INC     DPTR
0197 ED                MOV     A,R5
0198 F0                MOVX    @DPTR,A
                                           ; SOURCE LINE # 140
0199 F5EC              MOV     CCAP2L,A
                                           ; SOURCE LINE # 141
019B EC                MOV     A,R4
019C F5FC              MOV     CCAP2H,A
                                           ; SOURCE LINE # 142
                                           ; SOURCE LINE # 143
019E         ?C0014:
019E 22                RET     
             ; FUNCTION _PCA_Init (END)

             ; FUNCTION PCA_Handler (BEGIN)
0000 C0E0              PUSH    ACC
0002 C083              PUSH    DPH
0004 C082              PUSH    DPL
0006 C0D0              PUSH    PSW
0008 75D000            MOV     PSW,#00H
000B C006              PUSH    AR6
000D C007              PUSH    AR7
                                           ; SOURCE LINE # 153
                                           ; SOURCE LINE # 155
000F 30D82A            JNB     CCF0,?C0022
                                           ; SOURCE LINE # 156
                                           ; SOURCE LINE # 157
0012 C2D8              CLR     CCF0
                                           ; SOURCE LINE # 158
0014 30A505            JNB     P25,?C0023
0017 900000      R     MOV     DPTR,#PCA_Timer0
001A 8003              SJMP    ?C0034
001C         ?C0023:
                                           ; SOURCE LINE # 159
001C 900000      R     MOV     DPTR,#PWM0_low
001F         ?C0034:
001F E0                MOVX    A,@DPTR
0020 FE                MOV     R6,A
0021 A3                INC     DPTR
0022 E0                MOVX    A,@DPTR
0023 FF                MOV     R7,A
0024 900000      R     MOV     DPTR,#CCAP0_tmp+01H
0027 E0                MOVX    A,@DPTR
C51 COMPILER V9.60.7.0   PCA                                                               12/19/2023 11:49:39 PAGE 13  

0028 2F                ADD     A,R7
0029 F0                MOVX    @DPTR,A
002A 900000      R     MOV     DPTR,#CCAP0_tmp
002D E0                MOVX    A,@DPTR
002E 3E                ADDC    A,R6
002F F0                MOVX    @DPTR,A
0030         ?C0024:
                                           ; SOURCE LINE # 160
0030 900000      R     MOV     DPTR,#CCAP0_tmp
0033 E0                MOVX    A,@DPTR
0034 FE                MOV     R6,A
0035 A3                INC     DPTR
0036 E0                MOVX    A,@DPTR
0037 F5EA              MOV     CCAP0L,A
                                           ; SOURCE LINE # 161
0039 EE                MOV     A,R6
003A F5FA              MOV     CCAP0H,A
                                           ; SOURCE LINE # 162
003C         ?C0022:
                                           ; SOURCE LINE # 164
003C 30D92A            JNB     CCF1,?C0025
                                           ; SOURCE LINE # 165
                                           ; SOURCE LINE # 166
003F C2D9              CLR     CCF1
                                           ; SOURCE LINE # 167
0041 30A605            JNB     P26,?C0026
0044 900000      R     MOV     DPTR,#PCA_Timer1
0047 8003              SJMP    ?C0035
0049         ?C0026:
                                           ; SOURCE LINE # 168
0049 900000      R     MOV     DPTR,#PWM1_low
004C         ?C0035:
004C E0                MOVX    A,@DPTR
004D FE                MOV     R6,A
004E A3                INC     DPTR
004F E0                MOVX    A,@DPTR
0050 FF                MOV     R7,A
0051 900000      R     MOV     DPTR,#CCAP1_tmp+01H
0054 E0                MOVX    A,@DPTR
0055 2F                ADD     A,R7
0056 F0                MOVX    @DPTR,A
0057 900000      R     MOV     DPTR,#CCAP1_tmp
005A E0                MOVX    A,@DPTR
005B 3E                ADDC    A,R6
005C F0                MOVX    @DPTR,A
005D         ?C0027:
                                           ; SOURCE LINE # 169
005D 900000      R     MOV     DPTR,#CCAP1_tmp
0060 E0                MOVX    A,@DPTR
0061 FE                MOV     R6,A
0062 A3                INC     DPTR
0063 E0                MOVX    A,@DPTR
0064 F5EB              MOV     CCAP1L,A
                                           ; SOURCE LINE # 170
0066 EE                MOV     A,R6
0067 F5FB              MOV     CCAP1H,A
                                           ; SOURCE LINE # 171
0069         ?C0025:
                                           ; SOURCE LINE # 173
0069 30DA2A            JNB     CCF2,?C0031
                                           ; SOURCE LINE # 174
                                           ; SOURCE LINE # 175
C51 COMPILER V9.60.7.0   PCA                                                               12/19/2023 11:49:39 PAGE 14  

006C C2DA              CLR     CCF2
                                           ; SOURCE LINE # 176
006E 30A705            JNB     P27,?C0029
0071 900000      R     MOV     DPTR,#PCA_Timer2
0074 8003              SJMP    ?C0036
0076         ?C0029:
                                           ; SOURCE LINE # 177
0076 900000      R     MOV     DPTR,#PWM2_low
0079         ?C0036:
0079 E0                MOVX    A,@DPTR
007A FE                MOV     R6,A
007B A3                INC     DPTR
007C E0                MOVX    A,@DPTR
007D FF                MOV     R7,A
007E 900000      R     MOV     DPTR,#CCAP2_tmp+01H
0081 E0                MOVX    A,@DPTR
0082 2F                ADD     A,R7
0083 F0                MOVX    @DPTR,A
0084 900000      R     MOV     DPTR,#CCAP2_tmp
0087 E0                MOVX    A,@DPTR
0088 3E                ADDC    A,R6
0089 F0                MOVX    @DPTR,A
008A         ?C0030:
                                           ; SOURCE LINE # 178
008A 900000      R     MOV     DPTR,#CCAP2_tmp
008D E0                MOVX    A,@DPTR
008E FE                MOV     R6,A
008F A3                INC     DPTR
0090 E0                MOVX    A,@DPTR
0091 F5EC              MOV     CCAP2L,A
                                           ; SOURCE LINE # 179
0093 EE                MOV     A,R6
0094 F5FC              MOV     CCAP2H,A
                                           ; SOURCE LINE # 180
                                           ; SOURCE LINE # 187
0096         ?C0031:
0096 D007              POP     AR7
0098 D006              POP     AR6
009A D0D0              POP     PSW
009C D082              POP     DPL
009E D083              POP     DPH
00A0 D0E0              POP     ACC
00A2 32                RETI    
             ; FUNCTION PCA_Handler (END)

C51 COMPILER V9.60.7.0   PCA                                                               12/19/2023 11:49:39 PAGE 15  

NAME                                    CLASS   MSPACE  TYPE    OFFSET  SIZE
====                                    =====   ======  ====    ======  ====


uint16_t . . . . . . . . . . . . . . .  TYPEDEF  -----  U_INT    -----  2
CCF2 . . . . . . . . . . . . . . . . .  ABSBIT   -----  BIT      00DAH  1
P1M0 . . . . . . . . . . . . . . . . .  SFR      DATA   U_CHAR   0092H  1
P0M1 . . . . . . . . . . . . . . . . .  SFR      DATA   U_CHAR   0093H  1
P2M0 . . . . . . . . . . . . . . . . .  SFR      DATA   U_CHAR   0096H  1
P1M1 . . . . . . . . . . . . . . . . .  SFR      DATA   U_CHAR   0091H  1
P0 . . . . . . . . . . . . . . . . . .  SFR      DATA   U_CHAR   0080H  1
P3M0 . . . . . . . . . . . . . . . . .  SFR      DATA   U_CHAR   00B2H  1
P2M1 . . . . . . . . . . . . . . . . .  SFR      DATA   U_CHAR   0095H  1
P1 . . . . . . . . . . . . . . . . . .  SFR      DATA   U_CHAR   0090H  1
PCA_InitTypeDef. . . . . . . . . . . .  TYPEDEF  -----  STRUCT   -----  8
  PCA_IoUse. . . . . . . . . . . . . .  MEMBER   -----  U_CHAR   0000H  1
  PCA_Clock. . . . . . . . . . . . . .  MEMBER   -----  U_CHAR   0001H  1
  PCA_Mode . . . . . . . . . . . . . .  MEMBER   -----  U_CHAR   0002H  1
  PCA_PWM_Wide . . . . . . . . . . . .  MEMBER   -----  U_CHAR   0003H  1
  PCA_Interrupt_Mode . . . . . . . . .  MEMBER   -----  U_CHAR   0004H  1
  PCA_Polity . . . . . . . . . . . . .  MEMBER   -----  U_CHAR   0005H  1
  PCA_Value. . . . . . . . . . . . . .  MEMBER   -----  U_INT    0006H  2
P4M0 . . . . . . . . . . . . . . . . .  SFR      DATA   U_CHAR   00B4H  1
P3M1 . . . . . . . . . . . . . . . . .  SFR      DATA   U_CHAR   00B1H  1
P2 . . . . . . . . . . . . . . . . . .  SFR      DATA   U_CHAR   00A0H  1
WKTCH. . . . . . . . . . . . . . . . .  SFR      DATA   U_CHAR   00ABH  1
P5M0 . . . . . . . . . . . . . . . . .  SFR      DATA   U_CHAR   00CAH  1
P4M1 . . . . . . . . . . . . . . . . .  SFR      DATA   U_CHAR   00B3H  1
P3 . . . . . . . . . . . . . . . . . .  SFR      DATA   U_CHAR   00B0H  1
P6M0 . . . . . . . . . . . . . . . . .  SFR      DATA   U_CHAR   00CCH  1
P5M1 . . . . . . . . . . . . . . . . .  SFR      DATA   U_CHAR   00C9H  1
P4 . . . . . . . . . . . . . . . . . .  SFR      DATA   U_CHAR   00C0H  1
AC . . . . . . . . . . . . . . . . . .  ABSBIT   -----  BIT      00D6H  1
PWMIF. . . . . . . . . . . . . . . . .  SFR      DATA   U_CHAR   00F6H  1
P7M0 . . . . . . . . . . . . . . . . .  SFR      DATA   U_CHAR   00E2H  1
P6M1 . . . . . . . . . . . . . . . . .  SFR      DATA   U_CHAR   00CBH  1
P5 . . . . . . . . . . . . . . . . . .  SFR      DATA   U_CHAR   00C8H  1
EA . . . . . . . . . . . . . . . . . .  ABSBIT   -----  BIT      00AFH  1
P7M1 . . . . . . . . . . . . . . . . .  SFR      DATA   U_CHAR   00E1H  1
P6 . . . . . . . . . . . . . . . . . .  SFR      DATA   U_CHAR   00E8H  1
WKTCL. . . . . . . . . . . . . . . . .  SFR      DATA   U_CHAR   00AAH  1
P7 . . . . . . . . . . . . . . . . . .  SFR      DATA   U_CHAR   00F8H  1
SPINTURNRIGHT. . . . . . . . . . . . .  E_CONST  -----  U_CHAR   -----  1
SPCTL. . . . . . . . . . . . . . . . .  SFR      DATA   U_CHAR   00CEH  1
CF . . . . . . . . . . . . . . . . . .  ABSBIT   -----  BIT      00DFH  1
PWMCR. . . . . . . . . . . . . . . . .  SFR      DATA   U_CHAR   00F5H  1
CH . . . . . . . . . . . . . . . . . .  SFR      DATA   U_CHAR   00F9H  1
P_SW1. . . . . . . . . . . . . . . . .  SFR      DATA   U_CHAR   00A2H  1
PCA0_mode. . . . . . . . . . . . . . .  PUBLIC   XDATA  U_CHAR   0000H  1
P_SW2. . . . . . . . . . . . . . . . .  SFR      DATA   U_CHAR   00BAH  1
PCA1_mode. . . . . . . . . . . . . . .  PUBLIC   XDATA  U_CHAR   0001H  1
EADC . . . . . . . . . . . . . . . . .  ABSBIT   -----  BIT      00ADH  1
IE . . . . . . . . . . . . . . . . . .  SFR      DATA   U_CHAR   00A8H  1
PCA2_mode. . . . . . . . . . . . . . .  PUBLIC   XDATA  U_CHAR   0002H  1
CL . . . . . . . . . . . . . . . . . .  SFR      DATA   U_CHAR   00E9H  1
IAP_CMD. . . . . . . . . . . . . . . .  SFR      DATA   U_CHAR   00C5H  1
CCAP0H . . . . . . . . . . . . . . . .  SFR      DATA   U_CHAR   00FAH  1
size_t . . . . . . . . . . . . . . . .  TYPEDEF  -----  U_INT    -----  2
CCAP1H . . . . . . . . . . . . . . . .  SFR      DATA   U_CHAR   00FBH  1
CCAP2H . . . . . . . . . . . . . . . .  SFR      DATA   U_CHAR   00FCH  1
ADC_RES. . . . . . . . . . . . . . . .  SFR      DATA   U_CHAR   00BDH  1
C51 COMPILER V9.60.7.0   PCA                                                               12/19/2023 11:49:39 PAGE 16  

NAME                                    CLASS   MSPACE  TYPE    OFFSET  SIZE
====                                    =====   ======  ====    ======  ====


CCAP0L . . . . . . . . . . . . . . . .  SFR      DATA   U_CHAR   00EAH  1
CR . . . . . . . . . . . . . . . . . .  ABSBIT   -----  BIT      00DEH  1
BACKWARDS. . . . . . . . . . . . . . .  E_CONST  -----  U_CHAR   -----  1
PWMFDCR. . . . . . . . . . . . . . . .  SFR      DATA   U_CHAR   00F7H  1
CCAP1L . . . . . . . . . . . . . . . .  SFR      DATA   U_CHAR   00EBH  1
CCAPM0 . . . . . . . . . . . . . . . .  SFR      DATA   U_CHAR   00DAH  1
CCAP2L . . . . . . . . . . . . . . . .  SFR      DATA   U_CHAR   00ECH  1
CCAPM1 . . . . . . . . . . . . . . . .  SFR      DATA   U_CHAR   00DBH  1
TIM_InitTypeDef. . . . . . . . . . . .  TYPEDEF  -----  STRUCT   -----  8
  TIM_Mode . . . . . . . . . . . . . .  MEMBER   -----  U_CHAR   0000H  1
  TIM_Polity . . . . . . . . . . . . .  MEMBER   -----  U_CHAR   0001H  1
  TIM_Interrupt. . . . . . . . . . . .  MEMBER   -----  U_CHAR   0002H  1
  TIM_ClkSource. . . . . . . . . . . .  MEMBER   -----  U_CHAR   0003H  1
  TIM_ClkOut . . . . . . . . . . . . .  MEMBER   -----  U_CHAR   0004H  1
  TIM_Value. . . . . . . . . . . . . .  MEMBER   -----  U_INT    0005H  2
  TIM_Run. . . . . . . . . . . . . . .  MEMBER   -----  U_CHAR   0007H  1
FORWARD. . . . . . . . . . . . . . . .  E_CONST  -----  U_CHAR   -----  1
CCAPM2 . . . . . . . . . . . . . . . .  SFR      DATA   U_CHAR   00DCH  1
ES . . . . . . . . . . . . . . . . . .  ABSBIT   -----  BIT      00ACH  1
PADC . . . . . . . . . . . . . . . . .  ABSBIT   -----  BIT      00BDH  1
IP . . . . . . . . . . . . . . . . . .  SFR      DATA   U_CHAR   00B8H  1
RI . . . . . . . . . . . . . . . . . .  ABSBIT   -----  BIT      0098H  1
_motor_direction_. . . . . . . . . . .  * TAG *  -----  ENUM     -----  -----
CY . . . . . . . . . . . . . . . . . .  ABSBIT   -----  BIT      00D7H  1
TI . . . . . . . . . . . . . . . . . .  ABSBIT   -----  BIT      0099H  1
COMx_InitDefine. . . . . . . . . . . .  TYPEDEF  -----  STRUCT   -----  13
  UART_Mode. . . . . . . . . . . . . .  MEMBER   -----  U_CHAR   0000H  1
  UART_BRT_Use . . . . . . . . . . . .  MEMBER   -----  U_CHAR   0001H  1
  UART_BaudRate. . . . . . . . . . . .  MEMBER   -----  U_LONG   0002H  4
  Morecommunicate. . . . . . . . . . .  MEMBER   -----  U_CHAR   0006H  1
  UART_RxEnable. . . . . . . . . . . .  MEMBER   -----  U_CHAR   0007H  1
  BaudRateDouble . . . . . . . . . . .  MEMBER   -----  U_CHAR   0008H  1
  UART_Interrupt . . . . . . . . . . .  MEMBER   -----  U_CHAR   0009H  1
  UART_Polity. . . . . . . . . . . . .  MEMBER   -----  U_CHAR   000AH  1
  UART_P_SW. . . . . . . . . . . . . .  MEMBER   -----  U_CHAR   000BH  1
  UART_RXD_TXD_Short . . . . . . . . .  MEMBER   -----  U_CHAR   000CH  1
CLK_DIV. . . . . . . . . . . . . . . .  SFR      DATA   U_CHAR   0097H  1
IAP_ADDRH. . . . . . . . . . . . . . .  SFR      DATA   U_CHAR   00C3H  1
PS . . . . . . . . . . . . . . . . . .  ABSBIT   -----  BIT      00BCH  1
SP . . . . . . . . . . . . . . . . . .  SFR      DATA   U_CHAR   0081H  1
CMOD . . . . . . . . . . . . . . . . .  SFR      DATA   U_CHAR   00D9H  1
CCON . . . . . . . . . . . . . . . . .  SFR      DATA   U_CHAR   00D8H  1
IAP_ADDRL. . . . . . . . . . . . . . .  SFR      DATA   U_CHAR   00C4H  1
PPCA . . . . . . . . . . . . . . . . .  ABSBIT   -----  BIT      00BFH  1
OV . . . . . . . . . . . . . . . . . .  ABSBIT   -----  BIT      00D2H  1
CMPCR1 . . . . . . . . . . . . . . . .  SFR      DATA   U_CHAR   00E6H  1
CMPCR2 . . . . . . . . . . . . . . . .  SFR      DATA   U_CHAR   00E7H  1
_PWMn_Update . . . . . . . . . . . . .  PUBLIC   CODE   PROC     0000H  -----
  PCA_id . . . . . . . . . . . . . . .  * REG *  DATA   U_CHAR   0007H  1
  high . . . . . . . . . . . . . . . .  * REG *  DATA   U_INT    0004H  2
B_Capture0 . . . . . . . . . . . . . .  PUBLIC   DATA   BIT      0000H  1
B_Capture1 . . . . . . . . . . . . . .  PUBLIC   DATA   BIT      0001H  1
ELVD . . . . . . . . . . . . . . . . .  ABSBIT   -----  BIT      00AEH  1
B_Capture2 . . . . . . . . . . . . . .  PUBLIC   DATA   BIT      0002H  1
P00. . . . . . . . . . . . . . . . . .  ABSBIT   -----  BIT      0080H  1
ADC_CONTR. . . . . . . . . . . . . . .  SFR      DATA   U_CHAR   00BCH  1
SBUF . . . . . . . . . . . . . . . . .  SFR      DATA   U_CHAR   0099H  1
C51 COMPILER V9.60.7.0   PCA                                                               12/19/2023 11:49:39 PAGE 17  

NAME                                    CLASS   MSPACE  TYPE    OFFSET  SIZE
====                                    =====   ======  ====    ======  ====


PCON . . . . . . . . . . . . . . . . .  SFR      DATA   U_CHAR   0087H  1
P10. . . . . . . . . . . . . . . . . .  ABSBIT   -----  BIT      0090H  1
P01. . . . . . . . . . . . . . . . . .  ABSBIT   -----  BIT      0081H  1
P20. . . . . . . . . . . . . . . . . .  ABSBIT   -----  BIT      00A0H  1
P11. . . . . . . . . . . . . . . . . .  ABSBIT   -----  BIT      0091H  1
P02. . . . . . . . . . . . . . . . . .  ABSBIT   -----  BIT      0082H  1
P30. . . . . . . . . . . . . . . . . .  ABSBIT   -----  BIT      00B0H  1
P21. . . . . . . . . . . . . . . . . .  ABSBIT   -----  BIT      00A1H  1
P12. . . . . . . . . . . . . . . . . .  ABSBIT   -----  BIT      0092H  1
P03. . . . . . . . . . . . . . . . . .  ABSBIT   -----  BIT      0083H  1
SPINTURNLEFT . . . . . . . . . . . . .  E_CONST  -----  U_CHAR   -----  1
SCON . . . . . . . . . . . . . . . . .  SFR      DATA   U_CHAR   0098H  1
P40. . . . . . . . . . . . . . . . . .  ABSBIT   -----  BIT      00C0H  1
P31. . . . . . . . . . . . . . . . . .  ABSBIT   -----  BIT      00B1H  1
P22. . . . . . . . . . . . . . . . . .  ABSBIT   -----  BIT      00A2H  1
P13. . . . . . . . . . . . . . . . . .  ABSBIT   -----  BIT      0093H  1
P04. . . . . . . . . . . . . . . . . .  ABSBIT   -----  BIT      0084H  1
TMOD . . . . . . . . . . . . . . . . .  SFR      DATA   U_CHAR   0089H  1
TCON . . . . . . . . . . . . . . . . .  SFR      DATA   U_CHAR   0088H  1
P50. . . . . . . . . . . . . . . . . .  ABSBIT   -----  BIT      00C8H  1
P41. . . . . . . . . . . . . . . . . .  ABSBIT   -----  BIT      00C1H  1
P32. . . . . . . . . . . . . . . . . .  ABSBIT   -----  BIT      00B2H  1
P23. . . . . . . . . . . . . . . . . .  ABSBIT   -----  BIT      00A3H  1
P14. . . . . . . . . . . . . . . . . .  ABSBIT   -----  BIT      0094H  1
P05. . . . . . . . . . . . . . . . . .  ABSBIT   -----  BIT      0085H  1
P60. . . . . . . . . . . . . . . . . .  ABSBIT   -----  BIT      00E8H  1
P51. . . . . . . . . . . . . . . . . .  ABSBIT   -----  BIT      00C9H  1
P42. . . . . . . . . . . . . . . . . .  ABSBIT   -----  BIT      00C2H  1
P33. . . . . . . . . . . . . . . . . .  ABSBIT   -----  BIT      00B3H  1
P24. . . . . . . . . . . . . . . . . .  ABSBIT   -----  BIT      00A4H  1
P15. . . . . . . . . . . . . . . . . .  ABSBIT   -----  BIT      0095H  1
P06. . . . . . . . . . . . . . . . . .  ABSBIT   -----  BIT      0086H  1
PLVD . . . . . . . . . . . . . . . . .  ABSBIT   -----  BIT      00BEH  1
P70. . . . . . . . . . . . . . . . . .  ABSBIT   -----  BIT      00F8H  1
P61. . . . . . . . . . . . . . . . . .  ABSBIT   -----  BIT      00E9H  1
P52. . . . . . . . . . . . . . . . . .  ABSBIT   -----  BIT      00CAH  1
P43. . . . . . . . . . . . . . . . . .  ABSBIT   -----  BIT      00C3H  1
P34. . . . . . . . . . . . . . . . . .  ABSBIT   -----  BIT      00B4H  1
P25. . . . . . . . . . . . . . . . . .  ABSBIT   -----  BIT      00A5H  1
P16. . . . . . . . . . . . . . . . . .  ABSBIT   -----  BIT      0096H  1
P07. . . . . . . . . . . . . . . . . .  ABSBIT   -----  BIT      0087H  1
P71. . . . . . . . . . . . . . . . . .  ABSBIT   -----  BIT      00F9H  1
P62. . . . . . . . . . . . . . . . . .  ABSBIT   -----  BIT      00EAH  1
P53. . . . . . . . . . . . . . . . . .  ABSBIT   -----  BIT      00CBH  1
P44. . . . . . . . . . . . . . . . . .  ABSBIT   -----  BIT      00C4H  1
P35. . . . . . . . . . . . . . . . . .  ABSBIT   -----  BIT      00B5H  1
P26. . . . . . . . . . . . . . . . . .  ABSBIT   -----  BIT      00A6H  1
P17. . . . . . . . . . . . . . . . . .  ABSBIT   -----  BIT      0097H  1
P72. . . . . . . . . . . . . . . . . .  ABSBIT   -----  BIT      00FAH  1
P63. . . . . . . . . . . . . . . . . .  ABSBIT   -----  BIT      00EBH  1
P54. . . . . . . . . . . . . . . . . .  ABSBIT   -----  BIT      00CCH  1
P45. . . . . . . . . . . . . . . . . .  ABSBIT   -----  BIT      00C5H  1
P36. . . . . . . . . . . . . . . . . .  ABSBIT   -----  BIT      00B6H  1
P27. . . . . . . . . . . . . . . . . .  ABSBIT   -----  BIT      00A7H  1
P73. . . . . . . . . . . . . . . . . .  ABSBIT   -----  BIT      00FBH  1
P64. . . . . . . . . . . . . . . . . .  ABSBIT   -----  BIT      00ECH  1
P55. . . . . . . . . . . . . . . . . .  ABSBIT   -----  BIT      00CDH  1
C51 COMPILER V9.60.7.0   PCA                                                               12/19/2023 11:49:39 PAGE 18  

NAME                                    CLASS   MSPACE  TYPE    OFFSET  SIZE
====                                    =====   ======  ====    ======  ====


P46. . . . . . . . . . . . . . . . . .  ABSBIT   -----  BIT      00C6H  1
P37. . . . . . . . . . . . . . . . . .  ABSBIT   -----  BIT      00B7H  1
P74. . . . . . . . . . . . . . . . . .  ABSBIT   -----  BIT      00FCH  1
P65. . . . . . . . . . . . . . . . . .  ABSBIT   -----  BIT      00EDH  1
P56. . . . . . . . . . . . . . . . . .  ABSBIT   -----  BIT      00CEH  1
P47. . . . . . . . . . . . . . . . . .  ABSBIT   -----  BIT      00C7H  1
P75. . . . . . . . . . . . . . . . . .  ABSBIT   -----  BIT      00FDH  1
P66. . . . . . . . . . . . . . . . . .  ABSBIT   -----  BIT      00EEH  1
P57. . . . . . . . . . . . . . . . . .  ABSBIT   -----  BIT      00CFH  1
P76. . . . . . . . . . . . . . . . . .  ABSBIT   -----  BIT      00FEH  1
P67. . . . . . . . . . . . . . . . . .  ABSBIT   -----  BIT      00EFH  1
IE0. . . . . . . . . . . . . . . . . .  ABSBIT   -----  BIT      0089H  1
BUS_SPEED. . . . . . . . . . . . . . .  SFR      DATA   U_CHAR   00A1H  1
P77. . . . . . . . . . . . . . . . . .  ABSBIT   -----  BIT      00FFH  1
IE1. . . . . . . . . . . . . . . . . .  ABSBIT   -----  BIT      008BH  1
IE2. . . . . . . . . . . . . . . . . .  SFR      DATA   U_CHAR   00AFH  1
AUXR . . . . . . . . . . . . . . . . .  SFR      DATA   U_CHAR   008EH  1
B. . . . . . . . . . . . . . . . . . .  SFR      DATA   U_CHAR   00F0H  1
IAP_CONTR. . . . . . . . . . . . . . .  SFR      DATA   U_CHAR   00C7H  1
PWMCFG . . . . . . . . . . . . . . . .  SFR      DATA   U_CHAR   00F1H  1
STOP . . . . . . . . . . . . . . . . .  E_CONST  -----  U_CHAR   -----  1
ACC. . . . . . . . . . . . . . . . . .  SFR      DATA   U_CHAR   00E0H  1
ET0. . . . . . . . . . . . . . . . . .  ABSBIT   -----  BIT      00A9H  1
TF0. . . . . . . . . . . . . . . . . .  ABSBIT   -----  BIT      008DH  1
ET1. . . . . . . . . . . . . . . . . .  ABSBIT   -----  BIT      00ABH  1
_PCA_Init. . . . . . . . . . . . . . .  PUBLIC   CODE   PROC     0000H  -----
  PCA_id . . . . . . . . . . . . . . .  * REG *  DATA   U_CHAR   0005H  1
  PCAx . . . . . . . . . . . . . . . .  AUTO     XDATA  PTR      0000H  3
TURNRIGHT. . . . . . . . . . . . . . .  E_CONST  -----  U_CHAR   -----  1
TF1. . . . . . . . . . . . . . . . . .  ABSBIT   -----  BIT      008FH  1
IP2. . . . . . . . . . . . . . . . . .  SFR      DATA   U_CHAR   00B5H  1
RB8. . . . . . . . . . . . . . . . . .  ABSBIT   -----  BIT      009AH  1
TH0. . . . . . . . . . . . . . . . . .  SFR      DATA   U_CHAR   008CH  1
TH1. . . . . . . . . . . . . . . . . .  SFR      DATA   U_CHAR   008DH  1
IT0. . . . . . . . . . . . . . . . . .  ABSBIT   -----  BIT      0088H  1
EX0. . . . . . . . . . . . . . . . . .  ABSBIT   -----  BIT      00A8H  1
TB8. . . . . . . . . . . . . . . . . .  ABSBIT   -----  BIT      009BH  1
T2H. . . . . . . . . . . . . . . . . .  SFR      DATA   U_CHAR   00D6H  1
IT1. . . . . . . . . . . . . . . . . .  ABSBIT   -----  BIT      008AH  1
EX1. . . . . . . . . . . . . . . . . .  ABSBIT   -----  BIT      00AAH  1
uint8_t. . . . . . . . . . . . . . . .  TYPEDEF  -----  U_CHAR   -----  1
T3H. . . . . . . . . . . . . . . . . .  SFR      DATA   U_CHAR   00D4H  1
P. . . . . . . . . . . . . . . . . . .  ABSBIT   -----  BIT      00D0H  1
SM0. . . . . . . . . . . . . . . . . .  ABSBIT   -----  BIT      009FH  1
T4H. . . . . . . . . . . . . . . . . .  SFR      DATA   U_CHAR   00D2H  1
TL0. . . . . . . . . . . . . . . . . .  SFR      DATA   U_CHAR   008AH  1
SM1. . . . . . . . . . . . . . . . . .  ABSBIT   -----  BIT      009EH  1
TL1. . . . . . . . . . . . . . . . . .  SFR      DATA   U_CHAR   008BH  1
SM2. . . . . . . . . . . . . . . . . .  ABSBIT   -----  BIT      009DH  1
T2L. . . . . . . . . . . . . . . . . .  SFR      DATA   U_CHAR   00D7H  1
T3L. . . . . . . . . . . . . . . . . .  SFR      DATA   U_CHAR   00D5H  1
T4L. . . . . . . . . . . . . . . . . .  SFR      DATA   U_CHAR   00D3H  1
PT0. . . . . . . . . . . . . . . . . .  ABSBIT   -----  BIT      00B9H  1
PT1. . . . . . . . . . . . . . . . . .  ABSBIT   -----  BIT      00BBH  1
RS0. . . . . . . . . . . . . . . . . .  ABSBIT   -----  BIT      00D3H  1
IAP_DATA . . . . . . . . . . . . . . .  SFR      DATA   U_CHAR   00C2H  1
TR0. . . . . . . . . . . . . . . . . .  ABSBIT   -----  BIT      008CH  1
C51 COMPILER V9.60.7.0   PCA                                                               12/19/2023 11:49:39 PAGE 19  

NAME                                    CLASS   MSPACE  TYPE    OFFSET  SIZE
====                                    =====   ======  ====    ======  ====


RS1. . . . . . . . . . . . . . . . . .  ABSBIT   -----  BIT      00D4H  1
TR1. . . . . . . . . . . . . . . . . .  ABSBIT   -----  BIT      008EH  1
WDT_CONTR. . . . . . . . . . . . . . .  SFR      DATA   U_CHAR   00C1H  1
PX0. . . . . . . . . . . . . . . . . .  ABSBIT   -----  BIT      00B8H  1
PWM0_low . . . . . . . . . . . . . . .  PUBLIC   XDATA  U_INT    0003H  2
PX1. . . . . . . . . . . . . . . . . .  ABSBIT   -----  BIT      00BAH  1
PWM1_low . . . . . . . . . . . . . . .  PUBLIC   XDATA  U_INT    0005H  2
PCA_PWM0 . . . . . . . . . . . . . . .  SFR      DATA   U_CHAR   00F2H  1
PWM2_low . . . . . . . . . . . . . . .  PUBLIC   XDATA  U_INT    0007H  2
PCA_PWM1 . . . . . . . . . . . . . . .  SFR      DATA   U_CHAR   00F3H  1
PCA_PWM2 . . . . . . . . . . . . . . .  SFR      DATA   U_CHAR   00F4H  1
P1ASF. . . . . . . . . . . . . . . . .  SFR      DATA   U_CHAR   009DH  1
DPH. . . . . . . . . . . . . . . . . .  SFR      DATA   U_CHAR   0083H  1
GPIO_InitTypeDef . . . . . . . . . . .  TYPEDEF  -----  STRUCT   -----  2
  GPIO_Mode. . . . . . . . . . . . . .  MEMBER   -----  U_CHAR   0000H  1
  GPIO_Pin . . . . . . . . . . . . . .  MEMBER   -----  U_CHAR   0001H  1
T3T4M. . . . . . . . . . . . . . . . .  SFR      DATA   U_CHAR   00D1H  1
T4T3M. . . . . . . . . . . . . . . . .  SFR      DATA   U_CHAR   00D1H  1
ADC_RESL . . . . . . . . . . . . . . .  SFR      DATA   U_CHAR   00BEH  1
DPL. . . . . . . . . . . . . . . . . .  SFR      DATA   U_CHAR   0082H  1
SPSTAT . . . . . . . . . . . . . . . .  SFR      DATA   U_CHAR   00CDH  1
S2BUF. . . . . . . . . . . . . . . . .  SFR      DATA   U_CHAR   009BH  1
S3BUF. . . . . . . . . . . . . . . . .  SFR      DATA   U_CHAR   00ADH  1
S4BUF. . . . . . . . . . . . . . . . .  SFR      DATA   U_CHAR   0085H  1
REN. . . . . . . . . . . . . . . . . .  ABSBIT   -----  BIT      009CH  1
S2CON. . . . . . . . . . . . . . . . .  SFR      DATA   U_CHAR   009AH  1
S3CON. . . . . . . . . . . . . . . . .  SFR      DATA   U_CHAR   00ACH  1
S4CON. . . . . . . . . . . . . . . . .  SFR      DATA   U_CHAR   0084H  1
PCA_Timer0 . . . . . . . . . . . . . .  PUBLIC   XDATA  U_INT    0009H  2
PCA_Timer1 . . . . . . . . . . . . . .  PUBLIC   XDATA  U_INT    000BH  2
PCA_Timer2 . . . . . . . . . . . . . .  PUBLIC   XDATA  U_INT    000DH  2
SADEN. . . . . . . . . . . . . . . . .  SFR      DATA   U_CHAR   00B9H  1
SADDR. . . . . . . . . . . . . . . . .  SFR      DATA   U_CHAR   00A9H  1
IAP_TRIG . . . . . . . . . . . . . . .  SFR      DATA   U_CHAR   00C6H  1
AUXR1. . . . . . . . . . . . . . . . .  SFR      DATA   U_CHAR   00A2H  1
F0 . . . . . . . . . . . . . . . . . .  ABSBIT   -----  BIT      00D5H  1
INT_CLKO . . . . . . . . . . . . . . .  SFR      DATA   U_CHAR   008FH  1
F1 . . . . . . . . . . . . . . . . . .  ABSBIT   -----  BIT      00D1H  1
PCA_Handler. . . . . . . . . . . . . .  PUBLIC   CODE   PROC     0000H  -----
TURNLEFT . . . . . . . . . . . . . . .  E_CONST  -----  U_CHAR   -----  1
PSW. . . . . . . . . . . . . . . . . .  SFR      DATA   U_CHAR   00D0H  1
CCAP0_tmp. . . . . . . . . . . . . . .  PUBLIC   XDATA  U_INT    000FH  2
CCAP1_tmp. . . . . . . . . . . . . . .  PUBLIC   XDATA  U_INT    0011H  2
uint32_t . . . . . . . . . . . . . . .  TYPEDEF  -----  U_LONG   -----  4
CCF0 . . . . . . . . . . . . . . . . .  ABSBIT   -----  BIT      00D8H  1
CCAP2_tmp. . . . . . . . . . . . . . .  PUBLIC   XDATA  U_INT    0013H  2
CCF1 . . . . . . . . . . . . . . . . .  ABSBIT   -----  BIT      00D9H  1
SPDAT. . . . . . . . . . . . . . . . .  SFR      DATA   U_CHAR   00CFH  1
P0M0 . . . . . . . . . . . . . . . . .  SFR      DATA   U_CHAR   0094H  1


MODULE INFORMATION:   STATIC OVERLAYABLE
   CODE SIZE        =    755    ----
   CONSTANT SIZE    =   ----    ----
   XDATA SIZE       =     21       3
   PDATA SIZE       =   ----    ----
   DATA SIZE        =   ----    ----
   IDATA SIZE       =   ----    ----
C51 COMPILER V9.60.7.0   PCA                                                               12/19/2023 11:49:39 PAGE 20  

   BIT SIZE         =      3    ----
   EDATA SIZE       =   ----    ----
   HDATA SIZE       =   ----    ----
   XDATA CONST SIZE =   ----    ----
   FAR CONST SIZE   =   ----    ----
END OF MODULE INFORMATION.


C51 COMPILATION COMPLETE.  0 WARNING(S),  0 ERROR(S)
