C51 COMPILER V9.60.7.0   OLED                                                              12/19/2023 11:49:39 PAGE 1   


C51 COMPILER V9.60.7.0, COMPILATION OF MODULE OLED
OBJECT MODULE PLACED IN .\build\Target 1\Driver\OLED.o
COMPILER INVOKED BY: C:\Keil_v5\C51\BIN\C51.exe .\DRIVER\OLED.C OMF2 TABS(4) CODE NOCOND SYMBOLS PRINT(.\build\Target 1\
                    -Driver\OLED.lst) INCDIR(../../../../../../../Keil_v5/C51/INC/Atmel;User;System;../../../../../../../Keil_v5/C51/INC) DEF
                    -INE(__UVISION_VERSION=526) OPTIMIZE(8,SPEED) LARGE ROM(LARGE) OBJECT(.\build\Target 1\Driver\OLED.o)

line level    source

   1          #include "global.h"                  // Device heade
   2          
   3          /*引脚配置*/
   4          static void OLED_W_SCL(uint8_t x) {
   5   1          if(x)   P25 = 1;
   6   1          else    P25 = 0;
   7   1      }
   8          static void OLED_W_SDA(uint8_t x) {
   9   1          if(x)   P24 = 1;
  10   1          else    P24 = 0;
  11   1      }
  12          const uint8_t code OLED_F8x16[][16];
  13          
  14          /*引脚初始化*/
  15          static void OLED_GPIO_Init(void)
  16          {
  17   1          GPIO_InitTypeDef GPIO_InitStructure;
  18   1      
  19   1          GPIO_InitStructure.GPIO_Mode = GPIO_PullUp;
  20   1          GPIO_InitStructure.GPIO_Pin = GPIO_Pin_5;
  21   1          GPIO_Init(GPIO_P2, &GPIO_InitStructure);
  22   1      
  23   1          GPIO_InitStructure.GPIO_Mode = GPIO_PullUp;
  24   1          GPIO_InitStructure.GPIO_Pin = GPIO_Pin_4;
  25   1          GPIO_Init(GPIO_P2, &GPIO_InitStructure);
  26   1      
  27   1          OLED_W_SCL(1);
  28   1          OLED_W_SDA(1);
  29   1      }
  30          
  31          
  32          /**
  33            * @brief  I2C开始
  34            * @param  无
  35            * @retval 无
  36            */
  37          static void OLED_I2C_Start(void)
  38          {
  39   1          OLED_W_SDA(1);
  40   1          OLED_W_SCL(1);
  41   1          OLED_W_SDA(0);
  42   1          OLED_W_SCL(0);
  43   1      }
  44          
  45          /**
  46            * @brief  I2C停止
  47            * @param  无
  48            * @retval 无
  49            */
  50          static void OLED_I2C_Stop(void)
  51          {
  52   1          OLED_W_SDA(0);
  53   1          OLED_W_SCL(1);
C51 COMPILER V9.60.7.0   OLED                                                              12/19/2023 11:49:39 PAGE 2   

  54   1          OLED_W_SDA(1);
  55   1      }
  56          
  57          /**
  58            * @brief  I2C发送一个字节
  59            * @param  Byte 要发送的一个字节
  60            * @retval 无
  61            */
  62          static void OLED_I2C_SendByte(uint8_t Byte)
  63          {
  64   1          uint8_t i;
  65   1          for (i = 0; i < 8; i++)
  66   1          {
  67   2              OLED_W_SDA(Byte & (0x80 >> i));
  68   2              OLED_W_SCL(1);
  69   2              OLED_W_SCL(0);
  70   2          }
  71   1          OLED_W_SCL(1);  //额外的一个时钟，不处理应答信号
  72   1          OLED_W_SCL(0);
  73   1      }
  74          
  75          /**
  76            * @brief  OLED写命令
  77            * @param  Command 要写入的命令
  78            * @retval 无
  79            */
  80          static void OLED_WriteCommand(uint8_t Command)
  81          {
  82   1          OLED_I2C_Start();
  83   1          OLED_I2C_SendByte(0x78);        //从机地址
  84   1          OLED_I2C_SendByte(0x00);        //写命令
  85   1          OLED_I2C_SendByte(Command);
  86   1          OLED_I2C_Stop();
  87   1      }
  88          
  89          /**
  90            * @brief  OLED写数据
  91            * @param  Data 要写入的数据
  92            * @retval 无
  93            */
  94          static void OLED_WriteData(uint8_t Data)
  95          {
  96   1          OLED_I2C_Start();
  97   1          OLED_I2C_SendByte(0x78);        //从机地址
  98   1          OLED_I2C_SendByte(0x40);        //写数据
  99   1          OLED_I2C_SendByte(Data);
 100   1          OLED_I2C_Stop();
 101   1      }
 102          
 103          /**
 104            * @brief  OLED设置光标位置
 105            * @param  Y 以左上角为原点，向下方向的坐标，范围：0~7
 106            * @param  X 以左上角为原点，向右方向的坐标，范围：0~127
 107            * @retval 无
 108            */
 109          static void OLED_SetCursor(uint8_t Y, uint8_t X)
 110          {
 111   1          OLED_WriteCommand(0xB0 | Y);                    //设置Y位置
 112   1          OLED_WriteCommand(0x10 | ((X & 0xF0) >> 4));    //设置X位置高4位
 113   1          OLED_WriteCommand(0x00 | (X & 0x0F));           //设置X位置低4位
 114   1      }
 115          
C51 COMPILER V9.60.7.0   OLED                                                              12/19/2023 11:49:39 PAGE 3   

 116          /**
 117            * @brief  OLED清屏
 118            * @param  无
 119            * @retval 无
 120            */
 121          void OLED_Clear(void)
 122          {
 123   1          uint8_t i, j;
 124   1          for (j = 0; j < 8; j++)
 125   1          {
 126   2              OLED_SetCursor(j, 0);
 127   2              for(i = 0; i < 128; i++)
 128   2              {
 129   3                  OLED_WriteData(0x00);
 130   3              }
 131   2          }
 132   1      }
 133          
 134          /**
 135            * @brief  OLED显示一个字符
 136            * @param  Line 行位置，范围：1~4
 137            * @param  Column 列位置，范围：1~16
 138            * @param  Char 要显示的一个字符，范围：ASCII可见字符
 139            * @retval 无
 140            */
 141          void OLED_ShowChar(uint8_t Line, uint8_t Column, char Char)
 142          {
 143   1          uint8_t i;
 144   1          OLED_SetCursor((Line - 1) * 2, (Column - 1) * 8);       //设置光标位置在上半部分
 145   1          for (i = 0; i < 8; i++)
 146   1          {
 147   2              OLED_WriteData(OLED_F8x16[Char - ' '][i]);          //显示上半部分内容
 148   2          }
 149   1          OLED_SetCursor((Line - 1) * 2 + 1, (Column - 1) * 8);   //设置光标位置在下半部分
 150   1          for (i = 0; i < 8; i++)
 151   1          {
 152   2              OLED_WriteData(OLED_F8x16[Char - ' '][i + 8]);      //显示下半部分内容
 153   2          }
 154   1      }
 155          
 156          /**
 157            * @brief  OLED显示字符串
 158            * @param  Line 起始行位置，范围：1~4
 159            * @param  Column 起始列位置，范围：1~16
 160            * @param  String 要显示的字符串，范围：ASCII可见字符
 161            * @retval 无
 162            */
 163          void OLED_ShowString(uint8_t Line, uint8_t Column, char *String)
 164          {
 165   1          uint8_t i;
 166   1          for (i = 0; String[i] != '\0'; i++)
 167   1          {
 168   2              OLED_ShowChar(Line, Column + i, String[i]);
 169   2          }
 170   1      }
 171          
 172          /**
 173            * @brief  OLED初始化
 174            * @param  无
 175            * @retval 无
 176            */
 177          void OLED_Init(void)
C51 COMPILER V9.60.7.0   OLED                                                              12/19/2023 11:49:39 PAGE 4   

 178          {
 179   1          OLED_GPIO_Init();           //端口初始化
 180   1      
 181   1          OLED_WriteCommand(0xAE);    //关闭显示
 182   1      
 183   1          OLED_WriteCommand(0xD5);    //设置显示时钟分频比/振荡器频率
 184   1          OLED_WriteCommand(0x80);
 185   1      
 186   1          OLED_WriteCommand(0xA8);    //设置多路复用率
 187   1          OLED_WriteCommand(0x3F);
 188   1      
 189   1          OLED_WriteCommand(0xD3);    //设置显示偏移
 190   1          OLED_WriteCommand(0x00);
 191   1      
 192   1          OLED_WriteCommand(0x40);    //设置显示开始行
 193   1      
 194   1          OLED_WriteCommand(0xA1);    //设置左右方向，0xA1正常 0xA0左右反置
 195   1      
 196   1          OLED_WriteCommand(0xC8);    //设置上下方向，0xC8正常 0xC0上下反置
 197   1      
 198   1          OLED_WriteCommand(0xDA);    //设置COM引脚硬件配置
 199   1          OLED_WriteCommand(0x12);
 200   1      
 201   1          OLED_WriteCommand(0x81);    //设置对比度控制
 202   1          OLED_WriteCommand(0xCF);
 203   1      
 204   1          OLED_WriteCommand(0xD9);    //设置预充电周期
 205   1          OLED_WriteCommand(0xF1);
 206   1      
 207   1          OLED_WriteCommand(0xDB);    //设置VCOMH取消选择级别
 208   1          OLED_WriteCommand(0x30);
 209   1      
 210   1          OLED_WriteCommand(0xA4);    //设置整个显示打开/关闭
 211   1      
 212   1          OLED_WriteCommand(0xA6);    //设置正常/倒转显示
 213   1      
 214   1          OLED_WriteCommand(0x8D);    //设置充电泵
 215   1          OLED_WriteCommand(0x14);
 216   1      
 217   1          OLED_WriteCommand(0xAF);    //开启显示
 218   1      
 219   1          OLED_Clear();               //OLED清屏
 220   1      }
 221          
 222          /*OLED字模库，宽8像素，高16像素*/
 223          const uint8_t code OLED_F8x16[][16]=
 224          {
 225              0x00,0x00,0x00,0x00,0x00,0x00,0x00,0x00,
 226              0x00,0x00,0x00,0x00,0x00,0x00,0x00,0x00,//  0
 227          
 228              0x00,0x00,0x00,0xF8,0x00,0x00,0x00,0x00,
 229              0x00,0x00,0x00,0x33,0x30,0x00,0x00,0x00,//! 1
 230          
 231              0x00,0x10,0x0C,0x06,0x10,0x0C,0x06,0x00,
 232              0x00,0x00,0x00,0x00,0x00,0x00,0x00,0x00,//" 2
 233          
 234              0x40,0xC0,0x78,0x40,0xC0,0x78,0x40,0x00,
 235              0x04,0x3F,0x04,0x04,0x3F,0x04,0x04,0x00,//# 3
 236          
 237              0x00,0x70,0x88,0xFC,0x08,0x30,0x00,0x00,
 238              0x00,0x18,0x20,0xFF,0x21,0x1E,0x00,0x00,//$ 4
 239          
C51 COMPILER V9.60.7.0   OLED                                                              12/19/2023 11:49:39 PAGE 5   

 240              0xF0,0x08,0xF0,0x00,0xE0,0x18,0x00,0x00,
 241              0x00,0x21,0x1C,0x03,0x1E,0x21,0x1E,0x00,//% 5
 242          
 243              0x00,0xF0,0x08,0x88,0x70,0x00,0x00,0x00,
 244              0x1E,0x21,0x23,0x24,0x19,0x27,0x21,0x10,//& 6
 245          
 246              0x10,0x16,0x0E,0x00,0x00,0x00,0x00,0x00,
 247              0x00,0x00,0x00,0x00,0x00,0x00,0x00,0x00,//' 7
 248          
 249              0x00,0x00,0x00,0xE0,0x18,0x04,0x02,0x00,
 250              0x00,0x00,0x00,0x07,0x18,0x20,0x40,0x00,//( 8
 251          
 252              0x00,0x02,0x04,0x18,0xE0,0x00,0x00,0x00,
 253              0x00,0x40,0x20,0x18,0x07,0x00,0x00,0x00,//) 9
 254          
 255              0x40,0x40,0x80,0xF0,0x80,0x40,0x40,0x00,
 256              0x02,0x02,0x01,0x0F,0x01,0x02,0x02,0x00,//* 10
 257          
 258              0x00,0x00,0x00,0xF0,0x00,0x00,0x00,0x00,
 259              0x01,0x01,0x01,0x1F,0x01,0x01,0x01,0x00,//+ 11
 260          
 261              0x00,0x00,0x00,0x00,0x00,0x00,0x00,0x00,
 262              0x80,0xB0,0x70,0x00,0x00,0x00,0x00,0x00,//, 12
 263          
 264              0x00,0x00,0x00,0x00,0x00,0x00,0x00,0x00,
 265              0x00,0x01,0x01,0x01,0x01,0x01,0x01,0x01,//- 13
 266          
 267              0x00,0x00,0x00,0x00,0x00,0x00,0x00,0x00,
 268              0x00,0x30,0x30,0x00,0x00,0x00,0x00,0x00,//. 14
 269          
 270              0x00,0x00,0x00,0x00,0x80,0x60,0x18,0x04,
 271              0x00,0x60,0x18,0x06,0x01,0x00,0x00,0x00,/// 15
 272          
 273              0x00,0xE0,0x10,0x08,0x08,0x10,0xE0,0x00,
 274              0x00,0x0F,0x10,0x20,0x20,0x10,0x0F,0x00,//0 16
 275          
 276              0x00,0x10,0x10,0xF8,0x00,0x00,0x00,0x00,
 277              0x00,0x20,0x20,0x3F,0x20,0x20,0x00,0x00,//1 17
 278          
 279              0x00,0x70,0x08,0x08,0x08,0x88,0x70,0x00,
 280              0x00,0x30,0x28,0x24,0x22,0x21,0x30,0x00,//2 18
 281          
 282              0x00,0x30,0x08,0x88,0x88,0x48,0x30,0x00,
 283              0x00,0x18,0x20,0x20,0x20,0x11,0x0E,0x00,//3 19
 284          
 285              0x00,0x00,0xC0,0x20,0x10,0xF8,0x00,0x00,
 286              0x00,0x07,0x04,0x24,0x24,0x3F,0x24,0x00,//4 20
 287          
 288              0x00,0xF8,0x08,0x88,0x88,0x08,0x08,0x00,
 289              0x00,0x19,0x21,0x20,0x20,0x11,0x0E,0x00,//5 21
 290          
 291              0x00,0xE0,0x10,0x88,0x88,0x18,0x00,0x00,
 292              0x00,0x0F,0x11,0x20,0x20,0x11,0x0E,0x00,//6 22
 293          
 294              0x00,0x38,0x08,0x08,0xC8,0x38,0x08,0x00,
 295              0x00,0x00,0x00,0x3F,0x00,0x00,0x00,0x00,//7 23
 296          
 297              0x00,0x70,0x88,0x08,0x08,0x88,0x70,0x00,
 298              0x00,0x1C,0x22,0x21,0x21,0x22,0x1C,0x00,//8 24
 299          
 300              0x00,0xE0,0x10,0x08,0x08,0x10,0xE0,0x00,
 301              0x00,0x00,0x31,0x22,0x22,0x11,0x0F,0x00,//9 25
C51 COMPILER V9.60.7.0   OLED                                                              12/19/2023 11:49:39 PAGE 6   

 302          
 303              0x00,0x00,0x00,0xC0,0xC0,0x00,0x00,0x00,
 304              0x00,0x00,0x00,0x30,0x30,0x00,0x00,0x00,//: 26
 305          
 306              0x00,0x00,0x00,0x80,0x00,0x00,0x00,0x00,
 307              0x00,0x00,0x80,0x60,0x00,0x00,0x00,0x00,//; 27
 308          
 309              0x00,0x00,0x80,0x40,0x20,0x10,0x08,0x00,
 310              0x00,0x01,0x02,0x04,0x08,0x10,0x20,0x00,//< 28
 311          
 312              0x40,0x40,0x40,0x40,0x40,0x40,0x40,0x00,
 313              0x04,0x04,0x04,0x04,0x04,0x04,0x04,0x00,//= 29
 314          
 315              0x00,0x08,0x10,0x20,0x40,0x80,0x00,0x00,
 316              0x00,0x20,0x10,0x08,0x04,0x02,0x01,0x00,//> 30
 317          
 318              0x00,0x70,0x48,0x08,0x08,0x08,0xF0,0x00,
 319              0x00,0x00,0x00,0x30,0x36,0x01,0x00,0x00,//? 31
 320          
 321              0xC0,0x30,0xC8,0x28,0xE8,0x10,0xE0,0x00,
 322              0x07,0x18,0x27,0x24,0x23,0x14,0x0B,0x00,//@ 32
 323          
 324              0x00,0x00,0xC0,0x38,0xE0,0x00,0x00,0x00,
 325              0x20,0x3C,0x23,0x02,0x02,0x27,0x38,0x20,//A 33
 326          
 327              0x08,0xF8,0x88,0x88,0x88,0x70,0x00,0x00,
 328              0x20,0x3F,0x20,0x20,0x20,0x11,0x0E,0x00,//B 34
 329          
 330              0xC0,0x30,0x08,0x08,0x08,0x08,0x38,0x00,
 331              0x07,0x18,0x20,0x20,0x20,0x10,0x08,0x00,//C 35
 332          
 333              0x08,0xF8,0x08,0x08,0x08,0x10,0xE0,0x00,
 334              0x20,0x3F,0x20,0x20,0x20,0x10,0x0F,0x00,//D 36
 335          
 336              0x08,0xF8,0x88,0x88,0xE8,0x08,0x10,0x00,
 337              0x20,0x3F,0x20,0x20,0x23,0x20,0x18,0x00,//E 37
 338          
 339              0x08,0xF8,0x88,0x88,0xE8,0x08,0x10,0x00,
 340              0x20,0x3F,0x20,0x00,0x03,0x00,0x00,0x00,//F 38
 341          
 342              0xC0,0x30,0x08,0x08,0x08,0x38,0x00,0x00,
 343              0x07,0x18,0x20,0x20,0x22,0x1E,0x02,0x00,//G 39
 344          
 345              0x08,0xF8,0x08,0x00,0x00,0x08,0xF8,0x08,
 346              0x20,0x3F,0x21,0x01,0x01,0x21,0x3F,0x20,//H 40
 347          
 348              0x00,0x08,0x08,0xF8,0x08,0x08,0x00,0x00,
 349              0x00,0x20,0x20,0x3F,0x20,0x20,0x00,0x00,//I 41
 350          
 351              0x00,0x00,0x08,0x08,0xF8,0x08,0x08,0x00,
 352              0xC0,0x80,0x80,0x80,0x7F,0x00,0x00,0x00,//J 42
 353          
 354              0x08,0xF8,0x88,0xC0,0x28,0x18,0x08,0x00,
 355              0x20,0x3F,0x20,0x01,0x26,0x38,0x20,0x00,//K 43
 356          
 357              0x08,0xF8,0x08,0x00,0x00,0x00,0x00,0x00,
 358              0x20,0x3F,0x20,0x20,0x20,0x20,0x30,0x00,//L 44
 359          
 360              0x08,0xF8,0xF8,0x00,0xF8,0xF8,0x08,0x00,
 361              0x20,0x3F,0x00,0x3F,0x00,0x3F,0x20,0x00,//M 45
 362          
 363              0x08,0xF8,0x30,0xC0,0x00,0x08,0xF8,0x08,
C51 COMPILER V9.60.7.0   OLED                                                              12/19/2023 11:49:39 PAGE 7   

 364              0x20,0x3F,0x20,0x00,0x07,0x18,0x3F,0x00,//N 46
 365          
 366              0xE0,0x10,0x08,0x08,0x08,0x10,0xE0,0x00,
 367              0x0F,0x10,0x20,0x20,0x20,0x10,0x0F,0x00,//O 47
 368          
 369              0x08,0xF8,0x08,0x08,0x08,0x08,0xF0,0x00,
 370              0x20,0x3F,0x21,0x01,0x01,0x01,0x00,0x00,//P 48
 371          
 372              0xE0,0x10,0x08,0x08,0x08,0x10,0xE0,0x00,
 373              0x0F,0x18,0x24,0x24,0x38,0x50,0x4F,0x00,//Q 49
 374          
 375              0x08,0xF8,0x88,0x88,0x88,0x88,0x70,0x00,
 376              0x20,0x3F,0x20,0x00,0x03,0x0C,0x30,0x20,//R 50
 377          
 378              0x00,0x70,0x88,0x08,0x08,0x08,0x38,0x00,
 379              0x00,0x38,0x20,0x21,0x21,0x22,0x1C,0x00,//S 51
 380          
 381              0x18,0x08,0x08,0xF8,0x08,0x08,0x18,0x00,
 382              0x00,0x00,0x20,0x3F,0x20,0x00,0x00,0x00,//T 52
 383          
 384              0x08,0xF8,0x08,0x00,0x00,0x08,0xF8,0x08,
 385              0x00,0x1F,0x20,0x20,0x20,0x20,0x1F,0x00,//U 53
 386          
 387              0x08,0x78,0x88,0x00,0x00,0xC8,0x38,0x08,
 388              0x00,0x00,0x07,0x38,0x0E,0x01,0x00,0x00,//V 54
 389          
 390              0xF8,0x08,0x00,0xF8,0x00,0x08,0xF8,0x00,
 391              0x03,0x3C,0x07,0x00,0x07,0x3C,0x03,0x00,//W 55
 392          
 393              0x08,0x18,0x68,0x80,0x80,0x68,0x18,0x08,
 394              0x20,0x30,0x2C,0x03,0x03,0x2C,0x30,0x20,//X 56
 395          
 396              0x08,0x38,0xC8,0x00,0xC8,0x38,0x08,0x00,
 397              0x00,0x00,0x20,0x3F,0x20,0x00,0x00,0x00,//Y 57
 398          
 399              0x10,0x08,0x08,0x08,0xC8,0x38,0x08,0x00,
 400              0x20,0x38,0x26,0x21,0x20,0x20,0x18,0x00,//Z 58
 401          
 402              0x00,0x00,0x00,0xFE,0x02,0x02,0x02,0x00,
 403              0x00,0x00,0x00,0x7F,0x40,0x40,0x40,0x00,//[ 59
 404          
 405              0x00,0x0C,0x30,0xC0,0x00,0x00,0x00,0x00,
 406              0x00,0x00,0x00,0x01,0x06,0x38,0xC0,0x00,//\ 60
 407          
 408              0x00,0x02,0x02,0x02,0xFE,0x00,0x00,0x00,
 409              0x00,0x40,0x40,0x40,0x7F,0x00,0x00,0x00,//] 61
 410          
 411              0x00,0x00,0x04,0x02,0x02,0x02,0x04,0x00,
 412              0x00,0x00,0x00,0x00,0x00,0x00,0x00,0x00,//^ 62
 413          
 414              0x00,0x00,0x00,0x00,0x00,0x00,0x00,0x00,
 415              0x80,0x80,0x80,0x80,0x80,0x80,0x80,0x80,//_ 63
 416          
 417              0x00,0x02,0x02,0x04,0x00,0x00,0x00,0x00,
 418              0x00,0x00,0x00,0x00,0x00,0x00,0x00,0x00,//` 64
 419          
 420              0x00,0x00,0x80,0x80,0x80,0x80,0x00,0x00,
 421              0x00,0x19,0x24,0x22,0x22,0x22,0x3F,0x20,//a 65
 422          
 423              0x08,0xF8,0x00,0x80,0x80,0x00,0x00,0x00,
 424              0x00,0x3F,0x11,0x20,0x20,0x11,0x0E,0x00,//b 66
 425          
C51 COMPILER V9.60.7.0   OLED                                                              12/19/2023 11:49:39 PAGE 8   

 426              0x00,0x00,0x00,0x80,0x80,0x80,0x00,0x00,
 427              0x00,0x0E,0x11,0x20,0x20,0x20,0x11,0x00,//c 67
 428          
 429              0x00,0x00,0x00,0x80,0x80,0x88,0xF8,0x00,
 430              0x00,0x0E,0x11,0x20,0x20,0x10,0x3F,0x20,//d 68
 431          
 432              0x00,0x00,0x80,0x80,0x80,0x80,0x00,0x00,
 433              0x00,0x1F,0x22,0x22,0x22,0x22,0x13,0x00,//e 69
 434          
 435              0x00,0x80,0x80,0xF0,0x88,0x88,0x88,0x18,
 436              0x00,0x20,0x20,0x3F,0x20,0x20,0x00,0x00,//f 70
 437          
 438              0x00,0x00,0x80,0x80,0x80,0x80,0x80,0x00,
 439              0x00,0x6B,0x94,0x94,0x94,0x93,0x60,0x00,//g 71
 440          
 441              0x08,0xF8,0x00,0x80,0x80,0x80,0x00,0x00,
 442              0x20,0x3F,0x21,0x00,0x00,0x20,0x3F,0x20,//h 72
 443          
 444              0x00,0x80,0x98,0x98,0x00,0x00,0x00,0x00,
 445              0x00,0x20,0x20,0x3F,0x20,0x20,0x00,0x00,//i 73
 446          
 447              0x00,0x00,0x00,0x80,0x98,0x98,0x00,0x00,
 448              0x00,0xC0,0x80,0x80,0x80,0x7F,0x00,0x00,//j 74
 449          
 450              0x08,0xF8,0x00,0x00,0x80,0x80,0x80,0x00,
 451              0x20,0x3F,0x24,0x02,0x2D,0x30,0x20,0x00,//k 75
 452          
 453              0x00,0x08,0x08,0xF8,0x00,0x00,0x00,0x00,
 454              0x00,0x20,0x20,0x3F,0x20,0x20,0x00,0x00,//l 76
 455          
 456              0x80,0x80,0x80,0x80,0x80,0x80,0x80,0x00,
 457              0x20,0x3F,0x20,0x00,0x3F,0x20,0x00,0x3F,//m 77
 458          
 459              0x80,0x80,0x00,0x80,0x80,0x80,0x00,0x00,
 460              0x20,0x3F,0x21,0x00,0x00,0x20,0x3F,0x20,//n 78
 461          
 462              0x00,0x00,0x80,0x80,0x80,0x80,0x00,0x00,
 463              0x00,0x1F,0x20,0x20,0x20,0x20,0x1F,0x00,//o 79
 464          
 465              0x80,0x80,0x00,0x80,0x80,0x00,0x00,0x00,
 466              0x80,0xFF,0xA1,0x20,0x20,0x11,0x0E,0x00,//p 80
 467          
 468              0x00,0x00,0x00,0x80,0x80,0x80,0x80,0x00,
 469              0x00,0x0E,0x11,0x20,0x20,0xA0,0xFF,0x80,//q 81
 470          
 471              0x80,0x80,0x80,0x00,0x80,0x80,0x80,0x00,
 472              0x20,0x20,0x3F,0x21,0x20,0x00,0x01,0x00,//r 82
 473          
 474              0x00,0x00,0x80,0x80,0x80,0x80,0x80,0x00,
 475              0x00,0x33,0x24,0x24,0x24,0x24,0x19,0x00,//s 83
 476          
 477              0x00,0x80,0x80,0xE0,0x80,0x80,0x00,0x00,
 478              0x00,0x00,0x00,0x1F,0x20,0x20,0x00,0x00,//t 84
 479          
 480              0x80,0x80,0x00,0x00,0x00,0x80,0x80,0x00,
 481              0x00,0x1F,0x20,0x20,0x20,0x10,0x3F,0x20,//u 85
 482          
 483              0x80,0x80,0x80,0x00,0x00,0x80,0x80,0x80,
 484              0x00,0x01,0x0E,0x30,0x08,0x06,0x01,0x00,//v 86
 485          
 486              0x80,0x80,0x00,0x80,0x00,0x80,0x80,0x80,
 487              0x0F,0x30,0x0C,0x03,0x0C,0x30,0x0F,0x00,//w 87
C51 COMPILER V9.60.7.0   OLED                                                              12/19/2023 11:49:39 PAGE 9   

 488          
 489              0x00,0x80,0x80,0x00,0x80,0x80,0x80,0x00,
 490              0x00,0x20,0x31,0x2E,0x0E,0x31,0x20,0x00,//x 88
 491          
 492              0x80,0x80,0x80,0x00,0x00,0x80,0x80,0x80,
 493              0x80,0x81,0x8E,0x70,0x18,0x06,0x01,0x00,//y 89
 494          
 495              0x00,0x80,0x80,0x80,0x80,0x80,0x80,0x00,
 496              0x00,0x21,0x30,0x2C,0x22,0x21,0x30,0x00,//z 90
 497          
 498              0x00,0x00,0x00,0x00,0x80,0x7C,0x02,0x02,
 499              0x00,0x00,0x00,0x00,0x00,0x3F,0x40,0x40,//{ 91
 500          
 501              0x00,0x00,0x00,0x00,0xFF,0x00,0x00,0x00,
 502              0x00,0x00,0x00,0x00,0xFF,0x00,0x00,0x00,//| 92
 503          
 504              0x00,0x02,0x02,0x7C,0x80,0x00,0x00,0x00,
 505              0x00,0x40,0x40,0x3F,0x00,0x00,0x00,0x00,//} 93
 506          
 507              0x00,0x06,0x01,0x01,0x02,0x02,0x04,0x04,
 508              0x00,0x00,0x00,0x00,0x00,0x00,0x00,0x00,//~ 94
 509          };
 510          
 511          
C51 COMPILER V9.60.7.0   OLED                                                              12/19/2023 11:49:39 PAGE 10  

ASSEMBLY LISTING OF GENERATED OBJECT CODE


             ; FUNCTION _OLED_W_SCL (BEGIN)
                                           ; SOURCE LINE # 4
;---- Variable 'x' assigned to Register 'R7' ----
                                           ; SOURCE LINE # 5
0000 EF                MOV     A,R7
0001 6003              JZ      ?C0001
0003 D2A5              SETB    P25
0005 22                RET     
0006         ?C0001:
                                           ; SOURCE LINE # 6
0006 C2A5              CLR     P25
                                           ; SOURCE LINE # 7
0008         ?C0003:
0008 22                RET     
             ; FUNCTION _OLED_W_SCL (END)

             ; FUNCTION _OLED_W_SDA (BEGIN)
                                           ; SOURCE LINE # 8
;---- Variable 'x' assigned to Register 'R7' ----
                                           ; SOURCE LINE # 9
0000 EF                MOV     A,R7
0001 6003              JZ      ?C0004
0003 D2A4              SETB    P24
0005 22                RET     
0006         ?C0004:
                                           ; SOURCE LINE # 10
0006 C2A4              CLR     P24
                                           ; SOURCE LINE # 11
0008         ?C0006:
0008 22                RET     
             ; FUNCTION _OLED_W_SDA (END)

             ; FUNCTION OLED_GPIO_Init (BEGIN)
                                           ; SOURCE LINE # 15
                                           ; SOURCE LINE # 16
                                           ; SOURCE LINE # 19
0000 E4                CLR     A
0001 900000      R     MOV     DPTR,#GPIO_InitStructure
0004 F0                MOVX    @DPTR,A
                                           ; SOURCE LINE # 20
0005 A3                INC     DPTR
0006 7420              MOV     A,#020H
0008 F0                MOVX    @DPTR,A
                                           ; SOURCE LINE # 21
0009 7B01              MOV     R3,#01H
000B 7A00        R     MOV     R2,#HIGH GPIO_InitStructure
000D 7900        R     MOV     R1,#LOW GPIO_InitStructure
000F 7F02              MOV     R7,#02H
0011 120000      E     LCALL   _GPIO_Init
                                           ; SOURCE LINE # 23
0014 E4                CLR     A
0015 900000      R     MOV     DPTR,#GPIO_InitStructure
0018 F0                MOVX    @DPTR,A
                                           ; SOURCE LINE # 24
0019 A3                INC     DPTR
001A 7410              MOV     A,#010H
001C F0                MOVX    @DPTR,A
                                           ; SOURCE LINE # 25
001D 7B01              MOV     R3,#01H
C51 COMPILER V9.60.7.0   OLED                                                              12/19/2023 11:49:39 PAGE 11  

001F 7A00        R     MOV     R2,#HIGH GPIO_InitStructure
0021 7900        R     MOV     R1,#LOW GPIO_InitStructure
0023 7F02              MOV     R7,#02H
0025 120000      E     LCALL   _GPIO_Init
                                           ; SOURCE LINE # 27
0028 7F01              MOV     R7,#01H
002A 120000      R     LCALL   _OLED_W_SCL
                                           ; SOURCE LINE # 28
002D 020000      R     LJMP    _OLED_W_SDA
             ; FUNCTION OLED_GPIO_Init (END)

             ; FUNCTION OLED_I2C_Start (BEGIN)
                                           ; SOURCE LINE # 37
                                           ; SOURCE LINE # 38
                                           ; SOURCE LINE # 39
0000 7F01              MOV     R7,#01H
0002 120000      R     LCALL   _OLED_W_SDA
                                           ; SOURCE LINE # 40
0005 120000      R     LCALL   _OLED_W_SCL
                                           ; SOURCE LINE # 41
0008 1F                DEC     R7
0009 120000      R     LCALL   _OLED_W_SDA
                                           ; SOURCE LINE # 42
000C 020000      R     LJMP    _OLED_W_SCL
             ; FUNCTION OLED_I2C_Start (END)

             ; FUNCTION OLED_I2C_Stop (BEGIN)
                                           ; SOURCE LINE # 50
                                           ; SOURCE LINE # 51
                                           ; SOURCE LINE # 52
0000 E4                CLR     A
0001 FF                MOV     R7,A
0002 120000      R     LCALL   _OLED_W_SDA
                                           ; SOURCE LINE # 53
0005 0F                INC     R7
0006 120000      R     LCALL   _OLED_W_SCL
                                           ; SOURCE LINE # 54
0009 020000      R     LJMP    _OLED_W_SDA
             ; FUNCTION OLED_I2C_Stop (END)

             ; FUNCTION L?0039 (BEGIN)
0000 AC07              MOV     R4,AR7
0002 120000      R     LCALL   OLED_I2C_Start
0005 7F78              MOV     R7,#078H
             ; FUNCTION _OLED_I2C_SendByte (BEGIN)
                                           ; SOURCE LINE # 62
;---- Variable 'Byte' assigned to Register 'R6' ----
0007 AE07              MOV     R6,AR7
                                           ; SOURCE LINE # 63
                                           ; SOURCE LINE # 65
;---- Variable 'i' assigned to Register 'R5' ----
0009 E4                CLR     A
000A FD                MOV     R5,A
000B         ?C0010:
                                           ; SOURCE LINE # 66
                                           ; SOURCE LINE # 67
000B A805              MOV     R0,AR5
000D 7480              MOV     A,#080H
000F 08                INC     R0
0010 8002              SJMP    ?C0037
0012         ?C0036:
0012 C3                CLR     C
C51 COMPILER V9.60.7.0   OLED                                                              12/19/2023 11:49:39 PAGE 12  

0013 13                RRC     A
0014         ?C0037:
0014 D8FC              DJNZ    R0,?C0036
0016 5E                ANL     A,R6
0017 FF                MOV     R7,A
0018 120000      R     LCALL   _OLED_W_SDA
                                           ; SOURCE LINE # 68
001B 7F01              MOV     R7,#01H
001D 120000      R     LCALL   _OLED_W_SCL
                                           ; SOURCE LINE # 69
0020 1F                DEC     R7
0021 120000      R     LCALL   _OLED_W_SCL
                                           ; SOURCE LINE # 70
0024 0D                INC     R5
0025 ED                MOV     A,R5
0026 B408E2            CJNE    A,#08H,?C0010
0029         ?C0011:
                                           ; SOURCE LINE # 71
0029 7F01              MOV     R7,#01H
002B 120000      R     LCALL   _OLED_W_SCL
                                           ; SOURCE LINE # 72
002E 1F                DEC     R7
002F 020000      R     LJMP    _OLED_W_SCL
             ; FUNCTION _OLED_I2C_SendByte (END)

             ; FUNCTION _OLED_WriteCommand (BEGIN)
                                           ; SOURCE LINE # 80
;---- Variable 'Command' assigned to Register 'R4' ----
                                           ; SOURCE LINE # 81
                                           ; SOURCE LINE # 82
                                           ; SOURCE LINE # 83
0000 120000      R     LCALL   L?0039
                                           ; SOURCE LINE # 84
0003 E4                CLR     A
0004 FF                MOV     R7,A
0005 120000      R     LCALL   _OLED_I2C_SendByte
                                           ; SOURCE LINE # 85
0008 AF04              MOV     R7,AR4
000A 120000      R     LCALL   _OLED_I2C_SendByte
                                           ; SOURCE LINE # 86
000D 020000      R     LJMP    OLED_I2C_Stop
             ; FUNCTION _OLED_WriteCommand (END)

             ; FUNCTION L?0038 (BEGIN)
0000 3E                ADDC    A,R6
0001 F583              MOV     DPH,A
0003 E582              MOV     A,DPL
0005 2D                ADD     A,R5
0006 F582              MOV     DPL,A
0008 E4                CLR     A
0009 3583              ADDC    A,DPH
000B F583              MOV     DPH,A
000D E4                CLR     A
000E 93                MOVC    A,@A+DPTR
000F FF                MOV     R7,A
             ; FUNCTION _OLED_WriteData (BEGIN)
                                           ; SOURCE LINE # 94
;---- Variable 'Data' assigned to Register 'R4' ----
                                           ; SOURCE LINE # 95
                                           ; SOURCE LINE # 96
                                           ; SOURCE LINE # 97
0010 120000      R     LCALL   L?0039
C51 COMPILER V9.60.7.0   OLED                                                              12/19/2023 11:49:39 PAGE 13  

                                           ; SOURCE LINE # 98
0013 7F40              MOV     R7,#040H
0015 120000      R     LCALL   _OLED_I2C_SendByte
                                           ; SOURCE LINE # 99
0018 AF04              MOV     R7,AR4
001A 120000      R     LCALL   _OLED_I2C_SendByte
                                           ; SOURCE LINE # 100
001D 020000      R     LJMP    OLED_I2C_Stop
             ; FUNCTION _OLED_WriteData (END)

             ; FUNCTION L?0040 (BEGIN)
0000 14                DEC     A
0001 75F008            MOV     B,#08H
0004 A4                MUL     AB
0005 FD                MOV     R5,A
             ; FUNCTION _OLED_SetCursor (BEGIN)
                                           ; SOURCE LINE # 109
;---- Variable 'X' assigned to Register 'R3' ----
0006 AB05              MOV     R3,AR5
;---- Variable 'Y' assigned to Register 'R7' ----
                                           ; SOURCE LINE # 110
                                           ; SOURCE LINE # 111
0008 EF                MOV     A,R7
0009 44B0              ORL     A,#0B0H
000B FF                MOV     R7,A
000C 120000      R     LCALL   _OLED_WriteCommand
                                           ; SOURCE LINE # 112
000F EB                MOV     A,R3
0010 54F0              ANL     A,#0F0H
0012 C4                SWAP    A
0013 540F              ANL     A,#0FH
0015 4410              ORL     A,#010H
0017 FF                MOV     R7,A
0018 120000      R     LCALL   _OLED_WriteCommand
                                           ; SOURCE LINE # 113
001B EB                MOV     A,R3
001C 540F              ANL     A,#0FH
001E FF                MOV     R7,A
001F 020000      R     LJMP    _OLED_WriteCommand
             ; FUNCTION _OLED_SetCursor (END)

             ; FUNCTION OLED_Clear (BEGIN)
                                           ; SOURCE LINE # 121
                                           ; SOURCE LINE # 122
                                           ; SOURCE LINE # 124
;---- Variable 'j' assigned to Register 'R2' ----
0000 E4                CLR     A
0001 FA                MOV     R2,A
0002         ?C0017:
                                           ; SOURCE LINE # 125
                                           ; SOURCE LINE # 126
0002 AF02              MOV     R7,AR2
0004 E4                CLR     A
0005 FD                MOV     R5,A
0006 120000      R     LCALL   _OLED_SetCursor
                                           ; SOURCE LINE # 127
;---- Variable 'i' assigned to Register 'R3' ----
0009 E4                CLR     A
000A FB                MOV     R3,A
000B         ?C0020:
                                           ; SOURCE LINE # 128
                                           ; SOURCE LINE # 129
C51 COMPILER V9.60.7.0   OLED                                                              12/19/2023 11:49:39 PAGE 14  

000B E4                CLR     A
000C FF                MOV     R7,A
000D 120000      R     LCALL   _OLED_WriteData
                                           ; SOURCE LINE # 130
0010 0B                INC     R3
0011 EB                MOV     A,R3
0012 B480F6            CJNE    A,#080H,?C0020
                                           ; SOURCE LINE # 131
0015         ?C0019:
0015 0A                INC     R2
0016 EA                MOV     A,R2
0017 B408E8            CJNE    A,#08H,?C0017
                                           ; SOURCE LINE # 132
001A         ?C0023:
001A 22                RET     
             ; FUNCTION OLED_Clear (END)

             ; FUNCTION _OLED_ShowChar (BEGIN)
                                           ; SOURCE LINE # 141
0000 900000      R     MOV     DPTR,#Char
0003 EB                MOV     A,R3
0004 F0                MOVX    @DPTR,A
0005 900000      R     MOV     DPTR,#Line
0008 EF                MOV     A,R7
0009 F0                MOVX    @DPTR,A
000A A3                INC     DPTR
000B ED                MOV     A,R5
000C F0                MOVX    @DPTR,A
                                           ; SOURCE LINE # 142
                                           ; SOURCE LINE # 144
000D EF                MOV     A,R7
000E 14                DEC     A
000F 25E0              ADD     A,ACC
0011 FF                MOV     R7,A
0012 ED                MOV     A,R5
0013 120000      R     LCALL   L?0040
                                           ; SOURCE LINE # 145
0016 E4                CLR     A
0017 900000      R     MOV     DPTR,#i
001A F0                MOVX    @DPTR,A
001B         ?C0024:
001B 900000      R     MOV     DPTR,#i
001E E0                MOVX    A,@DPTR
001F FD                MOV     R5,A
0020 C3                CLR     C
0021 9408              SUBB    A,#08H
0023 5029              JNC     ?C0025
                                           ; SOURCE LINE # 146
                                           ; SOURCE LINE # 147
0025 900000      R     MOV     DPTR,#Char
0028 E0                MOVX    A,@DPTR
0029 FF                MOV     R7,A
002A 33                RLC     A
002B 95E0              SUBB    A,ACC
002D FE                MOV     R6,A
002E EF                MOV     A,R7
002F C4                SWAP    A
0030 F8                MOV     R0,A
0031 540F              ANL     A,#0FH
0033 C8                XCH     A,R0
0034 68                XRL     A,R0
0035 FF                MOV     R7,A
C51 COMPILER V9.60.7.0   OLED                                                              12/19/2023 11:49:39 PAGE 15  

0036 EE                MOV     A,R6
0037 C4                SWAP    A
0038 54F0              ANL     A,#0F0H
003A 48                ORL     A,R0
003B FE                MOV     R6,A
003C 7400        R     MOV     A,#LOW OLED_F8x16+0FE00H
003E 2F                ADD     A,R7
003F F582              MOV     DPL,A
0041 7400        R     MOV     A,#HIGH OLED_F8x16+0FE00H
0043 120000      R     LCALL   L?0038
                                           ; SOURCE LINE # 148
0046 900000      R     MOV     DPTR,#i
0049 E0                MOVX    A,@DPTR
004A 04                INC     A
004B F0                MOVX    @DPTR,A
004C 80CD              SJMP    ?C0024
004E         ?C0025:
                                           ; SOURCE LINE # 149
004E 900000      R     MOV     DPTR,#Line
0051 E0                MOVX    A,@DPTR
0052 25E0              ADD     A,ACC
0054 14                DEC     A
0055 FF                MOV     R7,A
0056 A3                INC     DPTR
0057 E0                MOVX    A,@DPTR
0058 120000      R     LCALL   L?0040
                                           ; SOURCE LINE # 150
005B E4                CLR     A
005C 900000      R     MOV     DPTR,#i
005F F0                MOVX    @DPTR,A
0060         ?C0027:
0060 900000      R     MOV     DPTR,#i
0063 E0                MOVX    A,@DPTR
0064 FD                MOV     R5,A
0065 C3                CLR     C
0066 9408              SUBB    A,#08H
0068 5029              JNC     ?C0030
                                           ; SOURCE LINE # 151
                                           ; SOURCE LINE # 152
006A 900000      R     MOV     DPTR,#Char
006D E0                MOVX    A,@DPTR
006E FF                MOV     R7,A
006F 33                RLC     A
0070 95E0              SUBB    A,ACC
0072 FE                MOV     R6,A
0073 EF                MOV     A,R7
0074 C4                SWAP    A
0075 F8                MOV     R0,A
0076 540F              ANL     A,#0FH
0078 C8                XCH     A,R0
0079 68                XRL     A,R0
007A FF                MOV     R7,A
007B EE                MOV     A,R6
007C C4                SWAP    A
007D 54F0              ANL     A,#0F0H
007F 48                ORL     A,R0
0080 FE                MOV     R6,A
0081 7400        R     MOV     A,#LOW OLED_F8x16+0FE08H
0083 2F                ADD     A,R7
0084 F582              MOV     DPL,A
0086 7400        R     MOV     A,#HIGH OLED_F8x16+0FE08H
0088 120000      R     LCALL   L?0038
C51 COMPILER V9.60.7.0   OLED                                                              12/19/2023 11:49:39 PAGE 16  

                                           ; SOURCE LINE # 153
008B 900000      R     MOV     DPTR,#i
008E E0                MOVX    A,@DPTR
008F 04                INC     A
0090 F0                MOVX    @DPTR,A
0091 80CD              SJMP    ?C0027
                                           ; SOURCE LINE # 154
0093         ?C0030:
0093 22                RET     
             ; FUNCTION _OLED_ShowChar (END)

             ; FUNCTION _OLED_ShowString (BEGIN)
                                           ; SOURCE LINE # 163
0000 900000      R     MOV     DPTR,#Line
0003 EF                MOV     A,R7
0004 F0                MOVX    @DPTR,A
0005 A3                INC     DPTR
0006 ED                MOV     A,R5
0007 F0                MOVX    @DPTR,A
0008 A3                INC     DPTR
0009 EB                MOV     A,R3
000A F0                MOVX    @DPTR,A
000B A3                INC     DPTR
000C EA                MOV     A,R2
000D F0                MOVX    @DPTR,A
000E A3                INC     DPTR
000F E9                MOV     A,R1
0010 F0                MOVX    @DPTR,A
                                           ; SOURCE LINE # 164
                                           ; SOURCE LINE # 166
0011 E4                CLR     A
0012 A3                INC     DPTR
0013 F0                MOVX    @DPTR,A
0014         ?C0031:
0014 900000      R     MOV     DPTR,#String
0017 E0                MOVX    A,@DPTR
0018 FB                MOV     R3,A
0019 A3                INC     DPTR
001A E0                MOVX    A,@DPTR
001B FA                MOV     R2,A
001C A3                INC     DPTR
001D E0                MOVX    A,@DPTR
001E F9                MOV     R1,A
001F A3                INC     DPTR
0020 E0                MOVX    A,@DPTR
0021 F582              MOV     DPL,A
0023 758300            MOV     DPH,#00H
0026 120000      E     LCALL   ?C?CLDOPTR
0029 FB                MOV     R3,A
002A 601B              JZ      ?C0034
                                           ; SOURCE LINE # 167
                                           ; SOURCE LINE # 168
002C 900000      R     MOV     DPTR,#Line
002F E0                MOVX    A,@DPTR
0030 FF                MOV     R7,A
0031 900000      R     MOV     DPTR,#i
0034 E0                MOVX    A,@DPTR
0035 FE                MOV     R6,A
0036 900000      R     MOV     DPTR,#Column
0039 E0                MOVX    A,@DPTR
003A 2E                ADD     A,R6
003B FD                MOV     R5,A
C51 COMPILER V9.60.7.0   OLED                                                              12/19/2023 11:49:39 PAGE 17  

003C 120000      R     LCALL   _OLED_ShowChar
                                           ; SOURCE LINE # 169
003F 900000      R     MOV     DPTR,#i
0042 E0                MOVX    A,@DPTR
0043 04                INC     A
0044 F0                MOVX    @DPTR,A
0045 80CD              SJMP    ?C0031
                                           ; SOURCE LINE # 170
0047         ?C0034:
0047 22                RET     
             ; FUNCTION _OLED_ShowString (END)

             ; FUNCTION OLED_Init (BEGIN)
                                           ; SOURCE LINE # 177
                                           ; SOURCE LINE # 178
                                           ; SOURCE LINE # 179
0000 120000      R     LCALL   OLED_GPIO_Init
                                           ; SOURCE LINE # 181
0003 7FAE              MOV     R7,#0AEH
0005 120000      R     LCALL   _OLED_WriteCommand
                                           ; SOURCE LINE # 183
0008 7FD5              MOV     R7,#0D5H
000A 120000      R     LCALL   _OLED_WriteCommand
                                           ; SOURCE LINE # 184
000D 7F80              MOV     R7,#080H
000F 120000      R     LCALL   _OLED_WriteCommand
                                           ; SOURCE LINE # 186
0012 7FA8              MOV     R7,#0A8H
0014 120000      R     LCALL   _OLED_WriteCommand
                                           ; SOURCE LINE # 187
0017 7F3F              MOV     R7,#03FH
0019 120000      R     LCALL   _OLED_WriteCommand
                                           ; SOURCE LINE # 189
001C 7FD3              MOV     R7,#0D3H
001E 120000      R     LCALL   _OLED_WriteCommand
                                           ; SOURCE LINE # 190
0021 E4                CLR     A
0022 FF                MOV     R7,A
0023 120000      R     LCALL   _OLED_WriteCommand
                                           ; SOURCE LINE # 192
0026 7F40              MOV     R7,#040H
0028 120000      R     LCALL   _OLED_WriteCommand
                                           ; SOURCE LINE # 194
002B 7FA1              MOV     R7,#0A1H
002D 120000      R     LCALL   _OLED_WriteCommand
                                           ; SOURCE LINE # 196
0030 7FC8              MOV     R7,#0C8H
0032 120000      R     LCALL   _OLED_WriteCommand
                                           ; SOURCE LINE # 198
0035 7FDA              MOV     R7,#0DAH
0037 120000      R     LCALL   _OLED_WriteCommand
                                           ; SOURCE LINE # 199
003A 7F12              MOV     R7,#012H
003C 120000      R     LCALL   _OLED_WriteCommand
                                           ; SOURCE LINE # 201
003F 7F81              MOV     R7,#081H
0041 120000      R     LCALL   _OLED_WriteCommand
                                           ; SOURCE LINE # 202
0044 7FCF              MOV     R7,#0CFH
0046 120000      R     LCALL   _OLED_WriteCommand
                                           ; SOURCE LINE # 204
0049 7FD9              MOV     R7,#0D9H
C51 COMPILER V9.60.7.0   OLED                                                              12/19/2023 11:49:39 PAGE 18  

004B 120000      R     LCALL   _OLED_WriteCommand
                                           ; SOURCE LINE # 205
004E 7FF1              MOV     R7,#0F1H
0050 120000      R     LCALL   _OLED_WriteCommand
                                           ; SOURCE LINE # 207
0053 7FDB              MOV     R7,#0DBH
0055 120000      R     LCALL   _OLED_WriteCommand
                                           ; SOURCE LINE # 208
0058 7F30              MOV     R7,#030H
005A 120000      R     LCALL   _OLED_WriteCommand
                                           ; SOURCE LINE # 210
005D 7FA4              MOV     R7,#0A4H
005F 120000      R     LCALL   _OLED_WriteCommand
                                           ; SOURCE LINE # 212
0062 7FA6              MOV     R7,#0A6H
0064 120000      R     LCALL   _OLED_WriteCommand
                                           ; SOURCE LINE # 214
0067 7F8D              MOV     R7,#08DH
0069 120000      R     LCALL   _OLED_WriteCommand
                                           ; SOURCE LINE # 215
006C 7F14              MOV     R7,#014H
006E 120000      R     LCALL   _OLED_WriteCommand
                                           ; SOURCE LINE # 217
0071 7FAF              MOV     R7,#0AFH
0073 120000      R     LCALL   _OLED_WriteCommand
                                           ; SOURCE LINE # 219
0076 020000      R     LJMP    OLED_Clear
             ; FUNCTION OLED_Init (END)

C51 COMPILER V9.60.7.0   OLED                                                              12/19/2023 11:49:39 PAGE 19  

NAME                                    CLASS   MSPACE  TYPE    OFFSET  SIZE
====                                    =====   ======  ====    ======  ====


uint16_t . . . . . . . . . . . . . . .  TYPEDEF  -----  U_INT    -----  2
CCF2 . . . . . . . . . . . . . . . . .  ABSBIT   -----  BIT      00DAH  1
P1M0 . . . . . . . . . . . . . . . . .  SFR      DATA   U_CHAR   0092H  1
P0M1 . . . . . . . . . . . . . . . . .  SFR      DATA   U_CHAR   0093H  1
P2M0 . . . . . . . . . . . . . . . . .  SFR      DATA   U_CHAR   0096H  1
P1M1 . . . . . . . . . . . . . . . . .  SFR      DATA   U_CHAR   0091H  1
P0 . . . . . . . . . . . . . . . . . .  SFR      DATA   U_CHAR   0080H  1
P3M0 . . . . . . . . . . . . . . . . .  SFR      DATA   U_CHAR   00B2H  1
P2M1 . . . . . . . . . . . . . . . . .  SFR      DATA   U_CHAR   0095H  1
P1 . . . . . . . . . . . . . . . . . .  SFR      DATA   U_CHAR   0090H  1
PCA_InitTypeDef. . . . . . . . . . . .  TYPEDEF  -----  STRUCT   -----  8
  PCA_IoUse. . . . . . . . . . . . . .  MEMBER   -----  U_CHAR   0000H  1
  PCA_Clock. . . . . . . . . . . . . .  MEMBER   -----  U_CHAR   0001H  1
  PCA_Mode . . . . . . . . . . . . . .  MEMBER   -----  U_CHAR   0002H  1
  PCA_PWM_Wide . . . . . . . . . . . .  MEMBER   -----  U_CHAR   0003H  1
  PCA_Interrupt_Mode . . . . . . . . .  MEMBER   -----  U_CHAR   0004H  1
  PCA_Polity . . . . . . . . . . . . .  MEMBER   -----  U_CHAR   0005H  1
  PCA_Value. . . . . . . . . . . . . .  MEMBER   -----  U_INT    0006H  2
P4M0 . . . . . . . . . . . . . . . . .  SFR      DATA   U_CHAR   00B4H  1
P3M1 . . . . . . . . . . . . . . . . .  SFR      DATA   U_CHAR   00B1H  1
P2 . . . . . . . . . . . . . . . . . .  SFR      DATA   U_CHAR   00A0H  1
WKTCH. . . . . . . . . . . . . . . . .  SFR      DATA   U_CHAR   00ABH  1
P5M0 . . . . . . . . . . . . . . . . .  SFR      DATA   U_CHAR   00CAH  1
P4M1 . . . . . . . . . . . . . . . . .  SFR      DATA   U_CHAR   00B3H  1
P3 . . . . . . . . . . . . . . . . . .  SFR      DATA   U_CHAR   00B0H  1
P6M0 . . . . . . . . . . . . . . . . .  SFR      DATA   U_CHAR   00CCH  1
P5M1 . . . . . . . . . . . . . . . . .  SFR      DATA   U_CHAR   00C9H  1
P4 . . . . . . . . . . . . . . . . . .  SFR      DATA   U_CHAR   00C0H  1
AC . . . . . . . . . . . . . . . . . .  ABSBIT   -----  BIT      00D6H  1
PWMIF. . . . . . . . . . . . . . . . .  SFR      DATA   U_CHAR   00F6H  1
P7M0 . . . . . . . . . . . . . . . . .  SFR      DATA   U_CHAR   00E2H  1
P6M1 . . . . . . . . . . . . . . . . .  SFR      DATA   U_CHAR   00CBH  1
P5 . . . . . . . . . . . . . . . . . .  SFR      DATA   U_CHAR   00C8H  1
EA . . . . . . . . . . . . . . . . . .  ABSBIT   -----  BIT      00AFH  1
P7M1 . . . . . . . . . . . . . . . . .  SFR      DATA   U_CHAR   00E1H  1
P6 . . . . . . . . . . . . . . . . . .  SFR      DATA   U_CHAR   00E8H  1
WKTCL. . . . . . . . . . . . . . . . .  SFR      DATA   U_CHAR   00AAH  1
P7 . . . . . . . . . . . . . . . . . .  SFR      DATA   U_CHAR   00F8H  1
SPINTURNRIGHT. . . . . . . . . . . . .  E_CONST  -----  U_CHAR   -----  1
SPCTL. . . . . . . . . . . . . . . . .  SFR      DATA   U_CHAR   00CEH  1
CF . . . . . . . . . . . . . . . . . .  ABSBIT   -----  BIT      00DFH  1
PWMCR. . . . . . . . . . . . . . . . .  SFR      DATA   U_CHAR   00F5H  1
CH . . . . . . . . . . . . . . . . . .  SFR      DATA   U_CHAR   00F9H  1
P_SW1. . . . . . . . . . . . . . . . .  SFR      DATA   U_CHAR   00A2H  1
P_SW2. . . . . . . . . . . . . . . . .  SFR      DATA   U_CHAR   00BAH  1
EADC . . . . . . . . . . . . . . . . .  ABSBIT   -----  BIT      00ADH  1
IE . . . . . . . . . . . . . . . . . .  SFR      DATA   U_CHAR   00A8H  1
CL . . . . . . . . . . . . . . . . . .  SFR      DATA   U_CHAR   00E9H  1
IAP_CMD. . . . . . . . . . . . . . . .  SFR      DATA   U_CHAR   00C5H  1
_OLED_WriteData. . . . . . . . . . . .  STATIC   CODE   PROC     0010H  -----
  Data . . . . . . . . . . . . . . . .  * REG *  DATA   U_CHAR   0004H  1
CCAP0H . . . . . . . . . . . . . . . .  SFR      DATA   U_CHAR   00FAH  1
size_t . . . . . . . . . . . . . . . .  TYPEDEF  -----  U_INT    -----  2
CCAP1H . . . . . . . . . . . . . . . .  SFR      DATA   U_CHAR   00FBH  1
CCAP2H . . . . . . . . . . . . . . . .  SFR      DATA   U_CHAR   00FCH  1
ADC_RES. . . . . . . . . . . . . . . .  SFR      DATA   U_CHAR   00BDH  1
CCAP0L . . . . . . . . . . . . . . . .  SFR      DATA   U_CHAR   00EAH  1
C51 COMPILER V9.60.7.0   OLED                                                              12/19/2023 11:49:39 PAGE 20  

NAME                                    CLASS   MSPACE  TYPE    OFFSET  SIZE
====                                    =====   ======  ====    ======  ====


CR . . . . . . . . . . . . . . . . . .  ABSBIT   -----  BIT      00DEH  1
_OLED_W_SDA. . . . . . . . . . . . . .  STATIC   CODE   PROC     0000H  -----
  x. . . . . . . . . . . . . . . . . .  * REG *  DATA   U_CHAR   0007H  1
BACKWARDS. . . . . . . . . . . . . . .  E_CONST  -----  U_CHAR   -----  1
PWMFDCR. . . . . . . . . . . . . . . .  SFR      DATA   U_CHAR   00F7H  1
CCAP1L . . . . . . . . . . . . . . . .  SFR      DATA   U_CHAR   00EBH  1
CCAPM0 . . . . . . . . . . . . . . . .  SFR      DATA   U_CHAR   00DAH  1
CCAP2L . . . . . . . . . . . . . . . .  SFR      DATA   U_CHAR   00ECH  1
CCAPM1 . . . . . . . . . . . . . . . .  SFR      DATA   U_CHAR   00DBH  1
TIM_InitTypeDef. . . . . . . . . . . .  TYPEDEF  -----  STRUCT   -----  8
  TIM_Mode . . . . . . . . . . . . . .  MEMBER   -----  U_CHAR   0000H  1
  TIM_Polity . . . . . . . . . . . . .  MEMBER   -----  U_CHAR   0001H  1
  TIM_Interrupt. . . . . . . . . . . .  MEMBER   -----  U_CHAR   0002H  1
  TIM_ClkSource. . . . . . . . . . . .  MEMBER   -----  U_CHAR   0003H  1
  TIM_ClkOut . . . . . . . . . . . . .  MEMBER   -----  U_CHAR   0004H  1
  TIM_Value. . . . . . . . . . . . . .  MEMBER   -----  U_INT    0005H  2
  TIM_Run. . . . . . . . . . . . . . .  MEMBER   -----  U_CHAR   0007H  1
FORWARD. . . . . . . . . . . . . . . .  E_CONST  -----  U_CHAR   -----  1
CCAPM2 . . . . . . . . . . . . . . . .  SFR      DATA   U_CHAR   00DCH  1
ES . . . . . . . . . . . . . . . . . .  ABSBIT   -----  BIT      00ACH  1
PADC . . . . . . . . . . . . . . . . .  ABSBIT   -----  BIT      00BDH  1
IP . . . . . . . . . . . . . . . . . .  SFR      DATA   U_CHAR   00B8H  1
RI . . . . . . . . . . . . . . . . . .  ABSBIT   -----  BIT      0098H  1
OLED_Init. . . . . . . . . . . . . . .  PUBLIC   CODE   PROC     0000H  -----
_motor_direction_. . . . . . . . . . .  * TAG *  -----  ENUM     -----  -----
CY . . . . . . . . . . . . . . . . . .  ABSBIT   -----  BIT      00D7H  1
TI . . . . . . . . . . . . . . . . . .  ABSBIT   -----  BIT      0099H  1
COMx_InitDefine. . . . . . . . . . . .  TYPEDEF  -----  STRUCT   -----  13
  UART_Mode. . . . . . . . . . . . . .  MEMBER   -----  U_CHAR   0000H  1
  UART_BRT_Use . . . . . . . . . . . .  MEMBER   -----  U_CHAR   0001H  1
  UART_BaudRate. . . . . . . . . . . .  MEMBER   -----  U_LONG   0002H  4
  Morecommunicate. . . . . . . . . . .  MEMBER   -----  U_CHAR   0006H  1
  UART_RxEnable. . . . . . . . . . . .  MEMBER   -----  U_CHAR   0007H  1
  BaudRateDouble . . . . . . . . . . .  MEMBER   -----  U_CHAR   0008H  1
  UART_Interrupt . . . . . . . . . . .  MEMBER   -----  U_CHAR   0009H  1
  UART_Polity. . . . . . . . . . . . .  MEMBER   -----  U_CHAR   000AH  1
  UART_P_SW. . . . . . . . . . . . . .  MEMBER   -----  U_CHAR   000BH  1
  UART_RXD_TXD_Short . . . . . . . . .  MEMBER   -----  U_CHAR   000CH  1
CLK_DIV. . . . . . . . . . . . . . . .  SFR      DATA   U_CHAR   0097H  1
_OLED_W_SCL. . . . . . . . . . . . . .  STATIC   CODE   PROC     0000H  -----
  x. . . . . . . . . . . . . . . . . .  * REG *  DATA   U_CHAR   0007H  1
IAP_ADDRH. . . . . . . . . . . . . . .  SFR      DATA   U_CHAR   00C3H  1
PS . . . . . . . . . . . . . . . . . .  ABSBIT   -----  BIT      00BCH  1
SP . . . . . . . . . . . . . . . . . .  SFR      DATA   U_CHAR   0081H  1
CMOD . . . . . . . . . . . . . . . . .  SFR      DATA   U_CHAR   00D9H  1
CCON . . . . . . . . . . . . . . . . .  SFR      DATA   U_CHAR   00D8H  1
IAP_ADDRL. . . . . . . . . . . . . . .  SFR      DATA   U_CHAR   00C4H  1
_OLED_ShowString . . . . . . . . . . .  PUBLIC   CODE   PROC     0000H  -----
  Line . . . . . . . . . . . . . . . .  AUTO     XDATA  U_CHAR   0000H  1
  Column . . . . . . . . . . . . . . .  AUTO     XDATA  U_CHAR   0001H  1
  String . . . . . . . . . . . . . . .  AUTO     XDATA  PTR      0002H  3
  i. . . . . . . . . . . . . . . . . .  AUTO     XDATA  U_CHAR   0005H  1
PPCA . . . . . . . . . . . . . . . . .  ABSBIT   -----  BIT      00BFH  1
OV . . . . . . . . . . . . . . . . . .  ABSBIT   -----  BIT      00D2H  1
_GPIO_Init . . . . . . . . . . . . . .  EXTERN   CODE   PROC     -----  -----
CMPCR1 . . . . . . . . . . . . . . . .  SFR      DATA   U_CHAR   00E6H  1
CMPCR2 . . . . . . . . . . . . . . . .  SFR      DATA   U_CHAR   00E7H  1
C51 COMPILER V9.60.7.0   OLED                                                              12/19/2023 11:49:39 PAGE 21  

NAME                                    CLASS   MSPACE  TYPE    OFFSET  SIZE
====                                    =====   ======  ====    ======  ====


_OLED_ShowChar . . . . . . . . . . . .  PUBLIC   CODE   PROC     0000H  -----
  Line . . . . . . . . . . . . . . . .  AUTO     XDATA  U_CHAR   0000H  1
  Column . . . . . . . . . . . . . . .  AUTO     XDATA  U_CHAR   0001H  1
  Char . . . . . . . . . . . . . . . .  AUTO     XDATA  CHAR     0002H  1
  i. . . . . . . . . . . . . . . . . .  AUTO     XDATA  U_CHAR   0003H  1
ELVD . . . . . . . . . . . . . . . . .  ABSBIT   -----  BIT      00AEH  1
OLED_GPIO_Init . . . . . . . . . . . .  STATIC   CODE   PROC     0000H  -----
  GPIO_InitStructure . . . . . . . . .  AUTO     XDATA  STRUCT   0000H  2
P00. . . . . . . . . . . . . . . . . .  ABSBIT   -----  BIT      0080H  1
ADC_CONTR. . . . . . . . . . . . . . .  SFR      DATA   U_CHAR   00BCH  1
SBUF . . . . . . . . . . . . . . . . .  SFR      DATA   U_CHAR   0099H  1
PCON . . . . . . . . . . . . . . . . .  SFR      DATA   U_CHAR   0087H  1
P10. . . . . . . . . . . . . . . . . .  ABSBIT   -----  BIT      0090H  1
P01. . . . . . . . . . . . . . . . . .  ABSBIT   -----  BIT      0081H  1
P20. . . . . . . . . . . . . . . . . .  ABSBIT   -----  BIT      00A0H  1
P11. . . . . . . . . . . . . . . . . .  ABSBIT   -----  BIT      0091H  1
P02. . . . . . . . . . . . . . . . . .  ABSBIT   -----  BIT      0082H  1
P30. . . . . . . . . . . . . . . . . .  ABSBIT   -----  BIT      00B0H  1
P21. . . . . . . . . . . . . . . . . .  ABSBIT   -----  BIT      00A1H  1
P12. . . . . . . . . . . . . . . . . .  ABSBIT   -----  BIT      0092H  1
P03. . . . . . . . . . . . . . . . . .  ABSBIT   -----  BIT      0083H  1
SPINTURNLEFT . . . . . . . . . . . . .  E_CONST  -----  U_CHAR   -----  1
SCON . . . . . . . . . . . . . . . . .  SFR      DATA   U_CHAR   0098H  1
P40. . . . . . . . . . . . . . . . . .  ABSBIT   -----  BIT      00C0H  1
P31. . . . . . . . . . . . . . . . . .  ABSBIT   -----  BIT      00B1H  1
P22. . . . . . . . . . . . . . . . . .  ABSBIT   -----  BIT      00A2H  1
P13. . . . . . . . . . . . . . . . . .  ABSBIT   -----  BIT      0093H  1
P04. . . . . . . . . . . . . . . . . .  ABSBIT   -----  BIT      0084H  1
TMOD . . . . . . . . . . . . . . . . .  SFR      DATA   U_CHAR   0089H  1
TCON . . . . . . . . . . . . . . . . .  SFR      DATA   U_CHAR   0088H  1
P50. . . . . . . . . . . . . . . . . .  ABSBIT   -----  BIT      00C8H  1
P41. . . . . . . . . . . . . . . . . .  ABSBIT   -----  BIT      00C1H  1
P32. . . . . . . . . . . . . . . . . .  ABSBIT   -----  BIT      00B2H  1
P23. . . . . . . . . . . . . . . . . .  ABSBIT   -----  BIT      00A3H  1
P14. . . . . . . . . . . . . . . . . .  ABSBIT   -----  BIT      0094H  1
P05. . . . . . . . . . . . . . . . . .  ABSBIT   -----  BIT      0085H  1
_OLED_SetCursor. . . . . . . . . . . .  STATIC   CODE   PROC     0006H  -----
  Y. . . . . . . . . . . . . . . . . .  * REG *  DATA   U_CHAR   0007H  1
  X. . . . . . . . . . . . . . . . . .  * REG *  DATA   U_CHAR   0003H  1
OLED_I2C_Start . . . . . . . . . . . .  STATIC   CODE   PROC     0000H  -----
P60. . . . . . . . . . . . . . . . . .  ABSBIT   -----  BIT      00E8H  1
P51. . . . . . . . . . . . . . . . . .  ABSBIT   -----  BIT      00C9H  1
P42. . . . . . . . . . . . . . . . . .  ABSBIT   -----  BIT      00C2H  1
P33. . . . . . . . . . . . . . . . . .  ABSBIT   -----  BIT      00B3H  1
P24. . . . . . . . . . . . . . . . . .  ABSBIT   -----  BIT      00A4H  1
P15. . . . . . . . . . . . . . . . . .  ABSBIT   -----  BIT      0095H  1
P06. . . . . . . . . . . . . . . . . .  ABSBIT   -----  BIT      0086H  1
PLVD . . . . . . . . . . . . . . . . .  ABSBIT   -----  BIT      00BEH  1
P70. . . . . . . . . . . . . . . . . .  ABSBIT   -----  BIT      00F8H  1
P61. . . . . . . . . . . . . . . . . .  ABSBIT   -----  BIT      00E9H  1
P52. . . . . . . . . . . . . . . . . .  ABSBIT   -----  BIT      00CAH  1
P43. . . . . . . . . . . . . . . . . .  ABSBIT   -----  BIT      00C3H  1
P34. . . . . . . . . . . . . . . . . .  ABSBIT   -----  BIT      00B4H  1
P25. . . . . . . . . . . . . . . . . .  ABSBIT   -----  BIT      00A5H  1
P16. . . . . . . . . . . . . . . . . .  ABSBIT   -----  BIT      0096H  1
P07. . . . . . . . . . . . . . . . . .  ABSBIT   -----  BIT      0087H  1
P71. . . . . . . . . . . . . . . . . .  ABSBIT   -----  BIT      00F9H  1
C51 COMPILER V9.60.7.0   OLED                                                              12/19/2023 11:49:39 PAGE 22  

NAME                                    CLASS   MSPACE  TYPE    OFFSET  SIZE
====                                    =====   ======  ====    ======  ====


P62. . . . . . . . . . . . . . . . . .  ABSBIT   -----  BIT      00EAH  1
P53. . . . . . . . . . . . . . . . . .  ABSBIT   -----  BIT      00CBH  1
P44. . . . . . . . . . . . . . . . . .  ABSBIT   -----  BIT      00C4H  1
P35. . . . . . . . . . . . . . . . . .  ABSBIT   -----  BIT      00B5H  1
P26. . . . . . . . . . . . . . . . . .  ABSBIT   -----  BIT      00A6H  1
P17. . . . . . . . . . . . . . . . . .  ABSBIT   -----  BIT      0097H  1
P72. . . . . . . . . . . . . . . . . .  ABSBIT   -----  BIT      00FAH  1
P63. . . . . . . . . . . . . . . . . .  ABSBIT   -----  BIT      00EBH  1
P54. . . . . . . . . . . . . . . . . .  ABSBIT   -----  BIT      00CCH  1
P45. . . . . . . . . . . . . . . . . .  ABSBIT   -----  BIT      00C5H  1
P36. . . . . . . . . . . . . . . . . .  ABSBIT   -----  BIT      00B6H  1
P27. . . . . . . . . . . . . . . . . .  ABSBIT   -----  BIT      00A7H  1
P73. . . . . . . . . . . . . . . . . .  ABSBIT   -----  BIT      00FBH  1
P64. . . . . . . . . . . . . . . . . .  ABSBIT   -----  BIT      00ECH  1
P55. . . . . . . . . . . . . . . . . .  ABSBIT   -----  BIT      00CDH  1
P46. . . . . . . . . . . . . . . . . .  ABSBIT   -----  BIT      00C6H  1
P37. . . . . . . . . . . . . . . . . .  ABSBIT   -----  BIT      00B7H  1
P74. . . . . . . . . . . . . . . . . .  ABSBIT   -----  BIT      00FCH  1
P65. . . . . . . . . . . . . . . . . .  ABSBIT   -----  BIT      00EDH  1
P56. . . . . . . . . . . . . . . . . .  ABSBIT   -----  BIT      00CEH  1
P47. . . . . . . . . . . . . . . . . .  ABSBIT   -----  BIT      00C7H  1
P75. . . . . . . . . . . . . . . . . .  ABSBIT   -----  BIT      00FDH  1
P66. . . . . . . . . . . . . . . . . .  ABSBIT   -----  BIT      00EEH  1
P57. . . . . . . . . . . . . . . . . .  ABSBIT   -----  BIT      00CFH  1
P76. . . . . . . . . . . . . . . . . .  ABSBIT   -----  BIT      00FEH  1
P67. . . . . . . . . . . . . . . . . .  ABSBIT   -----  BIT      00EFH  1
IE0. . . . . . . . . . . . . . . . . .  ABSBIT   -----  BIT      0089H  1
BUS_SPEED. . . . . . . . . . . . . . .  SFR      DATA   U_CHAR   00A1H  1
P77. . . . . . . . . . . . . . . . . .  ABSBIT   -----  BIT      00FFH  1
IE1. . . . . . . . . . . . . . . . . .  ABSBIT   -----  BIT      008BH  1
IE2. . . . . . . . . . . . . . . . . .  SFR      DATA   U_CHAR   00AFH  1
AUXR . . . . . . . . . . . . . . . . .  SFR      DATA   U_CHAR   008EH  1
B. . . . . . . . . . . . . . . . . . .  SFR      DATA   U_CHAR   00F0H  1
IAP_CONTR. . . . . . . . . . . . . . .  SFR      DATA   U_CHAR   00C7H  1
PWMCFG . . . . . . . . . . . . . . . .  SFR      DATA   U_CHAR   00F1H  1
STOP . . . . . . . . . . . . . . . . .  E_CONST  -----  U_CHAR   -----  1
ACC. . . . . . . . . . . . . . . . . .  SFR      DATA   U_CHAR   00E0H  1
_OLED_I2C_SendByte . . . . . . . . . .  STATIC   CODE   PROC     0007H  -----
  Byte . . . . . . . . . . . . . . . .  * REG *  DATA   U_CHAR   0006H  1
  i. . . . . . . . . . . . . . . . . .  * REG *  DATA   U_CHAR   0005H  1
ET0. . . . . . . . . . . . . . . . . .  ABSBIT   -----  BIT      00A9H  1
TF0. . . . . . . . . . . . . . . . . .  ABSBIT   -----  BIT      008DH  1
ET1. . . . . . . . . . . . . . . . . .  ABSBIT   -----  BIT      00ABH  1
TURNRIGHT. . . . . . . . . . . . . . .  E_CONST  -----  U_CHAR   -----  1
TF1. . . . . . . . . . . . . . . . . .  ABSBIT   -----  BIT      008FH  1
IP2. . . . . . . . . . . . . . . . . .  SFR      DATA   U_CHAR   00B5H  1
RB8. . . . . . . . . . . . . . . . . .  ABSBIT   -----  BIT      009AH  1
TH0. . . . . . . . . . . . . . . . . .  SFR      DATA   U_CHAR   008CH  1
OLED_I2C_Stop. . . . . . . . . . . . .  STATIC   CODE   PROC     0000H  -----
TH1. . . . . . . . . . . . . . . . . .  SFR      DATA   U_CHAR   008DH  1
IT0. . . . . . . . . . . . . . . . . .  ABSBIT   -----  BIT      0088H  1
EX0. . . . . . . . . . . . . . . . . .  ABSBIT   -----  BIT      00A8H  1
TB8. . . . . . . . . . . . . . . . . .  ABSBIT   -----  BIT      009BH  1
T2H. . . . . . . . . . . . . . . . . .  SFR      DATA   U_CHAR   00D6H  1
IT1. . . . . . . . . . . . . . . . . .  ABSBIT   -----  BIT      008AH  1
EX1. . . . . . . . . . . . . . . . . .  ABSBIT   -----  BIT      00AAH  1
uint8_t. . . . . . . . . . . . . . . .  TYPEDEF  -----  U_CHAR   -----  1
C51 COMPILER V9.60.7.0   OLED                                                              12/19/2023 11:49:39 PAGE 23  

NAME                                    CLASS   MSPACE  TYPE    OFFSET  SIZE
====                                    =====   ======  ====    ======  ====


T3H. . . . . . . . . . . . . . . . . .  SFR      DATA   U_CHAR   00D4H  1
P. . . . . . . . . . . . . . . . . . .  ABSBIT   -----  BIT      00D0H  1
SM0. . . . . . . . . . . . . . . . . .  ABSBIT   -----  BIT      009FH  1
T4H. . . . . . . . . . . . . . . . . .  SFR      DATA   U_CHAR   00D2H  1
TL0. . . . . . . . . . . . . . . . . .  SFR      DATA   U_CHAR   008AH  1
SM1. . . . . . . . . . . . . . . . . .  ABSBIT   -----  BIT      009EH  1
TL1. . . . . . . . . . . . . . . . . .  SFR      DATA   U_CHAR   008BH  1
SM2. . . . . . . . . . . . . . . . . .  ABSBIT   -----  BIT      009DH  1
T2L. . . . . . . . . . . . . . . . . .  SFR      DATA   U_CHAR   00D7H  1
T3L. . . . . . . . . . . . . . . . . .  SFR      DATA   U_CHAR   00D5H  1
T4L. . . . . . . . . . . . . . . . . .  SFR      DATA   U_CHAR   00D3H  1
PT0. . . . . . . . . . . . . . . . . .  ABSBIT   -----  BIT      00B9H  1
PT1. . . . . . . . . . . . . . . . . .  ABSBIT   -----  BIT      00BBH  1
RS0. . . . . . . . . . . . . . . . . .  ABSBIT   -----  BIT      00D3H  1
IAP_DATA . . . . . . . . . . . . . . .  SFR      DATA   U_CHAR   00C2H  1
TR0. . . . . . . . . . . . . . . . . .  ABSBIT   -----  BIT      008CH  1
RS1. . . . . . . . . . . . . . . . . .  ABSBIT   -----  BIT      00D4H  1
TR1. . . . . . . . . . . . . . . . . .  ABSBIT   -----  BIT      008EH  1
_OLED_WriteCommand . . . . . . . . . .  STATIC   CODE   PROC     0000H  -----
  Command. . . . . . . . . . . . . . .  * REG *  DATA   U_CHAR   0004H  1
WDT_CONTR. . . . . . . . . . . . . . .  SFR      DATA   U_CHAR   00C1H  1
PX0. . . . . . . . . . . . . . . . . .  ABSBIT   -----  BIT      00B8H  1
PX1. . . . . . . . . . . . . . . . . .  ABSBIT   -----  BIT      00BAH  1
PCA_PWM0 . . . . . . . . . . . . . . .  SFR      DATA   U_CHAR   00F2H  1
PCA_PWM1 . . . . . . . . . . . . . . .  SFR      DATA   U_CHAR   00F3H  1
PCA_PWM2 . . . . . . . . . . . . . . .  SFR      DATA   U_CHAR   00F4H  1
P1ASF. . . . . . . . . . . . . . . . .  SFR      DATA   U_CHAR   009DH  1
DPH. . . . . . . . . . . . . . . . . .  SFR      DATA   U_CHAR   0083H  1
GPIO_InitTypeDef . . . . . . . . . . .  TYPEDEF  -----  STRUCT   -----  2
  GPIO_Mode. . . . . . . . . . . . . .  MEMBER   -----  U_CHAR   0000H  1
  GPIO_Pin . . . . . . . . . . . . . .  MEMBER   -----  U_CHAR   0001H  1
T3T4M. . . . . . . . . . . . . . . . .  SFR      DATA   U_CHAR   00D1H  1
T4T3M. . . . . . . . . . . . . . . . .  SFR      DATA   U_CHAR   00D1H  1
ADC_RESL . . . . . . . . . . . . . . .  SFR      DATA   U_CHAR   00BEH  1
DPL. . . . . . . . . . . . . . . . . .  SFR      DATA   U_CHAR   0082H  1
SPSTAT . . . . . . . . . . . . . . . .  SFR      DATA   U_CHAR   00CDH  1
S2BUF. . . . . . . . . . . . . . . . .  SFR      DATA   U_CHAR   009BH  1
OLED_F8x16 . . . . . . . . . . . . . .  PUBLIC   CODE   ARRAY    0000H  1520
S3BUF. . . . . . . . . . . . . . . . .  SFR      DATA   U_CHAR   00ADH  1
S4BUF. . . . . . . . . . . . . . . . .  SFR      DATA   U_CHAR   0085H  1
REN. . . . . . . . . . . . . . . . . .  ABSBIT   -----  BIT      009CH  1
S2CON. . . . . . . . . . . . . . . . .  SFR      DATA   U_CHAR   009AH  1
S3CON. . . . . . . . . . . . . . . . .  SFR      DATA   U_CHAR   00ACH  1
S4CON. . . . . . . . . . . . . . . . .  SFR      DATA   U_CHAR   0084H  1
SADEN. . . . . . . . . . . . . . . . .  SFR      DATA   U_CHAR   00B9H  1
OLED_Clear . . . . . . . . . . . . . .  PUBLIC   CODE   PROC     0000H  -----
  i. . . . . . . . . . . . . . . . . .  * REG *  DATA   U_CHAR   0003H  1
  j. . . . . . . . . . . . . . . . . .  * REG *  DATA   U_CHAR   0002H  1
SADDR. . . . . . . . . . . . . . . . .  SFR      DATA   U_CHAR   00A9H  1
IAP_TRIG . . . . . . . . . . . . . . .  SFR      DATA   U_CHAR   00C6H  1
AUXR1. . . . . . . . . . . . . . . . .  SFR      DATA   U_CHAR   00A2H  1
F0 . . . . . . . . . . . . . . . . . .  ABSBIT   -----  BIT      00D5H  1
INT_CLKO . . . . . . . . . . . . . . .  SFR      DATA   U_CHAR   008FH  1
F1 . . . . . . . . . . . . . . . . . .  ABSBIT   -----  BIT      00D1H  1
TURNLEFT . . . . . . . . . . . . . . .  E_CONST  -----  U_CHAR   -----  1
PSW. . . . . . . . . . . . . . . . . .  SFR      DATA   U_CHAR   00D0H  1
uint32_t . . . . . . . . . . . . . . .  TYPEDEF  -----  U_LONG   -----  4
C51 COMPILER V9.60.7.0   OLED                                                              12/19/2023 11:49:39 PAGE 24  

NAME                                    CLASS   MSPACE  TYPE    OFFSET  SIZE
====                                    =====   ======  ====    ======  ====


CCF0 . . . . . . . . . . . . . . . . .  ABSBIT   -----  BIT      00D8H  1
CCF1 . . . . . . . . . . . . . . . . .  ABSBIT   -----  BIT      00D9H  1
SPDAT. . . . . . . . . . . . . . . . .  SFR      DATA   U_CHAR   00CFH  1
P0M0 . . . . . . . . . . . . . . . . .  SFR      DATA   U_CHAR   0094H  1


MODULE INFORMATION:   STATIC OVERLAYABLE
   CODE SIZE        =    593    ----
   CONSTANT SIZE    =   1520    ----
   XDATA SIZE       =   ----      12
   PDATA SIZE       =   ----    ----
   DATA SIZE        =   ----    ----
   IDATA SIZE       =   ----    ----
   BIT SIZE         =   ----    ----
   EDATA SIZE       =   ----    ----
   HDATA SIZE       =   ----    ----
   XDATA CONST SIZE =   ----    ----
   FAR CONST SIZE   =   ----    ----
END OF MODULE INFORMATION.


C51 COMPILATION COMPLETE.  0 WARNING(S),  0 ERROR(S)
